

Microchip MPLAB XC8 Assembler V2.45 build 20230818022343 
                                                                                               Thu May 02 18:06:31 2024

Microchip MPLAB XC8 C Compiler v2.45 (Free license) build 20230818022343 Og1 
     1                           	processor	18F4620
     2                           	fnconf	rparam,??,?,0
     3                           	pagewidth 120
     4                           	opt	flic
     5                           	psect	idataCOMRAM,global,class=CODE,delta=1,noexec
     6                           	psect	idataBANK0,global,class=CODE,delta=1,noexec
     7                           	psect	smallconst,global,reloc=2,class=SMALLCONST,delta=1,noexec
     8                           	psect	cinit,global,reloc=2,class=CODE,delta=1
     9                           	psect	bssCOMRAM,global,class=COMRAM,space=1,delta=1,lowdata,noexec
    10                           	psect	dataCOMRAM,global,class=COMRAM,space=1,delta=1,lowdata,noexec
    11                           	psect	bssBANK0,global,class=BANK0,space=1,delta=1,lowdata,noexec
    12                           	psect	dataBANK0,global,class=BANK0,space=1,delta=1,lowdata,noexec
    13                           	psect	cstackCOMRAM,global,class=COMRAM,space=1,delta=1,lowdata,noexec
    14                           	psect	text0,global,reloc=2,class=CODE,delta=1
    15                           	psect	text1,global,reloc=2,class=CODE,delta=1
    16                           	psect	text2,global,reloc=2,class=CODE,delta=1
    17                           	psect	text3,global,reloc=2,class=CODE,delta=1,inline
    18                           	psect	text4,global,reloc=2,class=CODE,delta=1,inline
    19                           	psect	text5,global,reloc=2,class=CODE,delta=1,inline
    20                           	psect	text6,global,reloc=2,class=CODE,delta=1
    21                           	psect	text7,global,reloc=2,class=CODE,delta=1
    22                           	psect	text8,global,reloc=2,class=CODE,delta=1
    23                           	psect	text9,global,reloc=2,class=CODE,delta=1
    24                           	psect	text10,global,reloc=2,class=CODE,delta=1
    25                           	psect	text11,global,reloc=2,class=CODE,delta=1,inline
    26                           	psect	text12,global,reloc=2,class=CODE,delta=1,inline
    27                           	psect	text13,global,reloc=2,class=CODE,delta=1,inline
    28                           	psect	intcode,global,reloc=2,class=CODE,delta=1
    29                           	psect	intcode_body,global,reloc=2,class=CODE,delta=1
    30                           	psect	text15,global,reloc=2,class=CODE,delta=1
    31                           	psect	text16,global,reloc=2,class=CODE,delta=1
    32                           	psect	text17,global,reloc=2,class=CODE,delta=1
    33                           	psect	text18,global,reloc=2,class=CODE,delta=1
    34                           	psect	text19,global,reloc=2,class=CODE,delta=1
    35                           	psect	text20,global,reloc=2,class=CODE,delta=1
    36                           	psect	text21,global,reloc=2,class=CODE,delta=1
    37                           	psect	text22,global,reloc=2,class=CODE,delta=1
    38                           	psect	text23,global,reloc=2,class=CODE,delta=1
    39                           	psect	text24,global,reloc=2,class=CODE,delta=1
    40                           	psect	text25,global,reloc=2,class=CODE,delta=1
    41                           	psect	text26,global,reloc=2,class=CODE,delta=1
    42                           	psect	text27,global,reloc=2,class=CODE,delta=1
    43                           	psect	text28,global,reloc=2,class=CODE,delta=1
    44                           	psect	text29,global,reloc=2,class=CODE,delta=1
    45                           	psect	text30,global,reloc=2,class=CODE,delta=1
    46                           	psect	text31,global,reloc=2,class=CODE,delta=1
    47                           	psect	text32,global,reloc=2,class=CODE,delta=1
    48                           	psect	text33,global,reloc=2,class=CODE,delta=1
    49                           	psect	intsave_regs,global,class=BIGRAM,space=1,delta=1,noexec
    50                           	psect	rparam,global,class=COMRAM,space=1,delta=1,noexec
    51                           	psect	temp,global,ovrld,common,class=COMRAM,space=1,delta=1
    52                           	psect	config,global,abs,ovrld,class=CONFIG,space=4,delta=1,noexec
    53   000000                     
    54                           ; Generated 23/03/2023 GMT
    55                           ; 
    56                           ; Copyright © 2023, Microchip Technology Inc. and its subsidiaries ("Microchip")
    57                           ; All rights reserved.
    58                           ; 
    59                           ; This software is developed by Microchip Technology Inc. and its subsidiaries ("Microch
      +                          ip").
    60                           ; 
    61                           ; Redistribution and use in source and binary forms, with or without modification, are
    62                           ; permitted provided that the following conditions are met:
    63                           ; 
    64                           ;     1. Redistributions of source code must retain the above copyright notice, this lis
      +                          t of
    65                           ;        conditions and the following disclaimer.
    66                           ; 
    67                           ;     2. Redistributions in binary form must reproduce the above copyright notice, this 
      +                          list
    68                           ;        of conditions and the following disclaimer in the documentation and/or other
    69                           ;        materials provided with the distribution. Publication is not required when
    70                           ;        this file is used in an embedded application.
    71                           ; 
    72                           ;     3. Microchip's name may not be used to endorse or promote products derived from th
      +                          is
    73                           ;        software without specific prior written permission.
    74                           ; 
    75                           ; THIS SOFTWARE IS PROVIDED BY MICROCHIP "AS IS" AND ANY EXPRESS OR IMPLIED WARRANTIES,
    76                           ; INCLUDING, BUT NOT LIMITED TO, THE IMPLIED WARRANTIES OF MERCHANTABILITY AND FITNESS F
      +                          OR
    77                           ; PURPOSE ARE DISCLAIMED.  IN NO EVENT SHALL MICROCHIP BE LIABLE FOR ANY DIRECT, INDIREC
      +                          T,
    78                           ; INCIDENTAL, SPECIAL, EXEMPLARY, OR CONSEQUENTIAL DAMAGES (INCLUDING BUT NOT LIMITED TO
    79                           ; PROCUREMENT OF SUBSTITUTE GOODS OR SERVICES; LOSS OF USE, DATA OR PROFITS; OR BUSINESS
    80                           ; INTERRUPTION) HOWSOEVER CAUSED AND ON ANY THEORY OF LIABILITY, WHETHER IN CONTRACT, ST
      +                          RICT
    81                           ; LIABILITY, OR TORT (INCLUDING NEGLIGENCE OR OTHERWISE) ARISING IN ANY WAY OUT OF THE U
      +                          SE OF
    82                           ; THIS SOFTWARE, EVEN IF ADVISED OF THE POSSIBILITY OF SUCH DAMAGE.
    83                           ; 
    84                           ; 
    85                           ; Code-generator required, PIC18F4620 Definitions
    86                           ; 
    87                           ; SFR Addresses
    88   000000                     
    89                           	psect	idataCOMRAM
    90   001CE8                     __pidataCOMRAM:
    91                           	callstack 0
    92                           
    93                           ;initializer for _lat_registers
    94   001CE8  89                 	db	137
    95   001CE9  0F                 	db	15
    96   001CEA  8A                 	db	138
    97   001CEB  0F                 	db	15
    98   001CEC  8B                 	db	139
    99   001CED  0F                 	db	15
   100   001CEE  8C                 	db	140
   101   001CEF  0F                 	db	15
   102   001CF0  8D                 	db	141
   103   001CF1  0F                 	db	15
   104                           
   105                           ;initializer for _tris_registers
   106   001CF2  92                 	db	146
   107   001CF3  0F                 	db	15
   108   001CF4  93                 	db	147
   109   001CF5  0F                 	db	15
   110   001CF6  94                 	db	148
   111   001CF7  0F                 	db	15
   112   001CF8  95                 	db	149
   113   001CF9  0F                 	db	15
   114   001CFA  96                 	db	150
   115   001CFB  0F                 	db	15
   116                           
   117                           ;initializer for spi_slave_mode_configuration@F3145
   118   001CFC  68                 	db	104
   119                           
   120                           ;initializer for spi_slave_mode_configuration@F3143
   121   001CFD  5A                 	db	90
   122                           
   123                           ;initializer for spi_slave_mode_configuration@F3141
   124   001CFE  62                 	db	98
   125                           
   126                           ;initializer for spi_slave_mode_configuration@F3139
   127   001CFF  2A                 	db	42
   128                           
   129                           ;initializer for spi_master_mode_configuration@F3135
   130   001D00  1A                 	db	26
   131                           
   132                           ;initializer for spi_master_mode_configuration@F3133
   133   001D01  62                 	db	98
   134                           
   135                           ;initializer for spi_master_mode_configuration@F3131
   136   001D02  2A                 	db	42
   137                           
   138                           ;initializer for _RB7_Flag
   139   001D03  01                 	db	1
   140                           
   141                           ;initializer for _RB6_Flag
   142   001D04  01                 	db	1
   143                           
   144                           ;initializer for _RB5_Flag
   145   001D05  01                 	db	1
   146                           
   147                           ;initializer for _RB4_Flag
   148   001D06  01                 	db	1
   149                           
   150                           	psect	idataBANK0
   151   001DA4                     __pidataBANK0:
   152                           	callstack 0
   153                           
   154                           ;initializer for _port_registers
   155   001DA4  80                 	db	128
   156   001DA5  0F                 	db	15
   157   001DA6  81                 	db	129
   158   001DA7  0F                 	db	15
   159   001DA8  82                 	db	130
   160   001DA9  0F                 	db	15
   161   001DAA  83                 	db	131
   162   001DAB  0F                 	db	15
   163   001DAC  84                 	db	132
   164   001DAD  0F                 	db	15
   165                           
   166                           	psect	smallconst
   167   001000                     __psmallconst:
   168                           	callstack 0
   169   001000  00                 	db	0
   170   001001                     _keypad_values:
   171                           	callstack 0
   172   001001  31                 	db	49
   173   001002  32                 	db	50
   174   001003  33                 	db	51
   175   001004  34                 	db	52
   176   001005  35                 	db	53
   177   001006  36                 	db	54
   178   001007  37                 	db	55
   179   001008  38                 	db	56
   180   001009  39                 	db	57
   181   00100A  2A                 	db	42
   182   00100B  30                 	db	48
   183   00100C  23                 	db	35
   184   00100D                     __end_of_keypad_values:
   185                           	callstack 0
   186   000000                     _TMR3L	set	4018
   187   000000                     _TMR3H	set	4019
   188   000000                     _TMR1L	set	4046
   189   000000                     _TMR1H	set	4047
   190   000000                     _SSPSTATbits	set	4039
   191   000000                     _SSPCON2bits	set	4037
   192   000000                     _SSPADD	set	4040
   193   000000                     _SSPCON1bits	set	4038
   194   000000                     _INTCON2bits	set	4081
   195   000000                     _INTCON3bits	set	4080
   196   000000                     _SPBRGH	set	4016
   197   000000                     _SPBRG	set	4015
   198   000000                     _BAUDCONbits	set	4024
   199   000000                     _RCREG	set	4014
   200   000000                     _TXREG	set	4013
   201   000000                     _TXSTAbits	set	4012
   202   000000                     _TRISCbits	set	3988
   203   000000                     _RCSTAbits	set	4011
   204   000000                     _EEDATA	set	4008
   205   000000                     _EECON2	set	4007
   206   000000                     _EEADR	set	4009
   207   000000                     _EEADRH	set	4010
   208   000000                     _CCPR2L	set	4027
   209   000000                     _CCPR2H	set	4028
   210   000000                     _CCPR1L	set	4030
   211   000000                     _CCPR1H	set	4031
   212   000000                     _ADCON1bits	set	4033
   213   000000                     _ADRESL	set	4035
   214   000000                     _ADRESH	set	4036
   215   000000                     _INTCONbits	set	4082
   216   000000                     _TRISD	set	3989
   217   000000                     _TRISB	set	3987
   218   000000                     _TRISE	set	3990
   219   000000                     _PORTBbits	set	3969
   220   000000                     _TXSTA1bits	set	4012
   221   000000                     _TRISC	set	3988
   222   000000                     _PIE1bits	set	3997
   223   000000                     _ADCON2bits	set	4032
   224   000000                     _ADCON0bits	set	4034
   225   000000                     _LATA	set	3977
   226   000000                     _PORTE	set	3972
   227   000000                     _PORTD	set	3971
   228   000000                     _PORTC	set	3970
   229   000000                     _PORTB	set	3969
   230   000000                     _PORTA	set	3968
   231   000000                     _TRISA	set	3986
   232   000000                     _PIE2bits	set	4000
   233   000000                     _CCP2CONbits	set	4026
   234   000000                     _CCP1CONbits	set	4029
   235   000000                     _PIR1bits	set	3998
   236   000000                     _EECON1bits	set	4006
   237   000000                     _T3CONbits	set	4017
   238   000000                     _PIR2bits	set	4001
   239   000000                     _LATE	set	3981
   240   000000                     _LATD	set	3980
   241   000000                     _LATC	set	3979
   242   000000                     _LATB	set	3978
   243   000000                     _TMR2	set	4044
   244   000000                     _T2CONbits	set	4042
   245   000000                     _T1CONbits	set	4045
   246   000000                     _T0CONbits	set	4053
   247   000000                     _SSPBUF	set	4041
   248   000000                     _TMR0H	set	4055
   249   000000                     _TMR0L	set	4054
   250   00100D                     STR_1:
   251   00100D  25                 	db	37
   252   00100E  69                 	db	105	;'i'
   253   00100F  00                 	db	0
   254   001010  00                 	db	0	; dummy byte at the end
   255   000000                     
   256                           ; #config settings
   257                           
   258                           	psect	cinit
   259   001AF6                     __pcinit:
   260                           	callstack 0
   261   001AF6                     start_initialization:
   262                           	callstack 0
   263   001AF6                     __initialization:
   264                           	callstack 0
   265                           
   266                           ; Initialize objects allocated to BANK0 (10 bytes)
   267                           ; load TBLPTR registers with __pidataBANK0
   268   001AF6  0EA4               	movlw	low __pidataBANK0
   269   001AF8  6EF6               	movwf	tblptrl,c
   270   001AFA  0E1D               	movlw	high __pidataBANK0
   271   001AFC  6EF7               	movwf	tblptrh,c
   272   001AFE  0E00               	movlw	low (__pidataBANK0 shr (0+16))
   273   001B00  6EF8               	movwf	tblptru,c
   274   001B02  EE00  F091         	lfsr	0,__pdataBANK0
   275   001B06  EE10 F00A          	lfsr	1,10
   276   001B0A                     copy_data0:
   277   001B0A  0009               	tblrd		*+
   278   001B0C  CFF5 FFEE          	movff	tablat,postinc0
   279   001B10  50E5               	movf	postdec1,w,c
   280   001B12  50E1               	movf	fsr1l,w,c
   281   001B14  E1FA               	bnz	copy_data0
   282                           
   283                           ; Initialize objects allocated to COMRAM (31 bytes)
   284                           ; load TBLPTR registers with __pidataCOMRAM
   285   001B16  0EE8               	movlw	low __pidataCOMRAM
   286   001B18  6EF6               	movwf	tblptrl,c
   287   001B1A  0E1C               	movlw	high __pidataCOMRAM
   288   001B1C  6EF7               	movwf	tblptrh,c
   289   001B1E  0E00               	movlw	low (__pidataCOMRAM shr (0+16))
   290   001B20  6EF8               	movwf	tblptru,c
   291   001B22  EE00  F04D         	lfsr	0,__pdataCOMRAM
   292   001B26  EE10 F01F          	lfsr	1,31
   293   001B2A                     copy_data1:
   294   001B2A  0009               	tblrd		*+
   295   001B2C  CFF5 FFEE          	movff	tablat,postinc0
   296   001B30  50E5               	movf	postdec1,w,c
   297   001B32  50E1               	movf	fsr1l,w,c
   298   001B34  E1FA               	bnz	copy_data1
   299                           
   300                           ; Clear objects allocated to BANK0 (17 bytes)
   301   001B36  EE00  F080         	lfsr	0,__pbssBANK0
   302   001B3A  0E11               	movlw	17
   303   001B3C                     clear_0:
   304   001B3C  6AEE               	clrf	postinc0,c
   305   001B3E  06E8               	decf	wreg,f,c
   306   001B40  E1FD               	bnz	clear_0
   307                           
   308                           ; Clear objects allocated to COMRAM (76 bytes)
   309   001B42  EE00  F001         	lfsr	0,__pbssCOMRAM
   310   001B46  0E4C               	movlw	76
   311   001B48                     clear_1:
   312   001B48  6AEE               	clrf	postinc0,c
   313   001B4A  06E8               	decf	wreg,f,c
   314   001B4C  E1FD               	bnz	clear_1
   315   001B4E                     end_of_initialization:
   316                           	callstack 0
   317   001B4E                     __end_of__initialization:
   318                           	callstack 0
   319   001B4E  907A               	bcf	int$flags,0,c	;clear compiler interrupt flag (level 1)
   320   001B50  927A               	bcf	int$flags,1,c	;clear compiler interrupt flag (level 2)
   321   001B52  0100               	movlb	0
   322   001B54  EFB8  F00E         	goto	_main	;jump to C main() function
   323                           
   324                           	psect	bssCOMRAM
   325   000001                     __pbssCOMRAM:
   326                           	callstack 0
   327   000001                     _MSSP_SPI_INTERRUPT_HANDLERF:
   328                           	callstack 0
   329   000001                     	ds	2
   330   000003                     _preload_vall:
   331                           	callstack 0
   332   000003                     	ds	2
   333   000005                     _TIMER3_INTERRUPT_HANDLERF:
   334                           	callstack 0
   335   000005                     	ds	2
   336   000007                     _TMR2_INTERRUPT_HANDLER:
   337                           	callstack 0
   338   000007                     	ds	2
   339   000009                     _TIMER1_INTERRUPPT_HANDLERF:
   340                           	callstack 0
   341   000009                     	ds	2
   342   00000B                     _preload_value@hal_timer1$F3666:
   343                           	callstack 0
   344   00000B                     	ds	2
   345   00000D                     _TIMER0_INTERRUPPT:
   346                           	callstack 0
   347   00000D                     	ds	2
   348   00000F                     _preload_value:
   349                           	callstack 0
   350   00000F                     	ds	2
   351   000011                     _I2C_INTERRUPT_HANDLERF:
   352                           	callstack 0
   353   000011                     	ds	2
   354   000013                     _I2C_Receive_Overflow_IndicatoR_HANDLERF:
   355                           	callstack 0
   356   000013                     	ds	2
   357   000015                     _I2C_Write_Collision_HANDLERF:
   358                           	callstack 0
   359   000015                     	ds	2
   360   000017                     _RB7_InterruptHandeler_Low:
   361                           	callstack 0
   362   000017                     	ds	2
   363   000019                     _RB7_InterruptHandeler_High:
   364                           	callstack 0
   365   000019                     	ds	2
   366   00001B                     _RB6_InterruptHandeler_Low:
   367                           	callstack 0
   368   00001B                     	ds	2
   369   00001D                     _RB6_InterruptHandeler_High:
   370                           	callstack 0
   371   00001D                     	ds	2
   372   00001F                     _RB5_InterruptHandeler_Low:
   373                           	callstack 0
   374   00001F                     	ds	2
   375   000021                     _RB5_InterruptHandeler_High:
   376                           	callstack 0
   377   000021                     	ds	2
   378   000023                     _RB4_InterruptHandeler_Low:
   379                           	callstack 0
   380   000023                     	ds	2
   381   000025                     _RB4_InterruptHandeler_High:
   382                           	callstack 0
   383   000025                     	ds	2
   384   000027                     _INT2_InterruptHandeler:
   385                           	callstack 0
   386   000027                     	ds	2
   387   000029                     _INT1_InterruptHandeler:
   388                           	callstack 0
   389   000029                     	ds	2
   390   00002B                     _INT0_InterruptHandeler:
   391                           	callstack 0
   392   00002B                     	ds	2
   393   00002D                     _EUSART_OVERRUN_ERROR_INTERRUPT_HANDLERF:
   394                           	callstack 0
   395   00002D                     	ds	2
   396   00002F                     _EUSART_FRAMING_ERROR_INTERRUPT_HANDLERF:
   397                           	callstack 0
   398   00002F                     	ds	2
   399   000031                     _EUSART_RX_INTERRUPT_HANDLERF:
   400                           	callstack 0
   401   000031                     	ds	2
   402   000033                     _EUSART_TX_INTERRUPT_HANDLERF:
   403                           	callstack 0
   404   000033                     	ds	2
   405   000035                     capture_read_value@F3164:
   406                           	callstack 0
   407   000035                     	ds	2
   408   000037                     _CCP2_INTERRUPT_HANDLERF:
   409                           	callstack 0
   410   000037                     	ds	2
   411   000039                     _CCP1_INTERRUPT_HANDLERF:
   412                           	callstack 0
   413   000039                     	ds	2
   414   00003B                     _ADC_INTERRUPT_HANDLERF:
   415                           	callstack 0
   416   00003B                     	ds	2
   417   00003D                     _ret:
   418                           	callstack 0
   419   00003D                     	ds	1
   420   00003E                     _preload_val:
   421                           	callstack 0
   422   00003E                     	ds	1
   423   00003F                     relay_off@F3062:
   424                           	callstack 0
   425   00003F                     	ds	1
   426   000040                     relay_on@F3057:
   427                           	callstack 0
   428   000040                     	ds	1
   429   000041                     relay_initalize@F3052:
   430                           	callstack 0
   431   000041                     	ds	1
   432   000042                     led_toggle@F3069:
   433                           	callstack 0
   434   000042                     	ds	1
   435   000043                     led_off@F3064:
   436                           	callstack 0
   437   000043                     	ds	1
   438   000044                     led_on@F3059:
   439                           	callstack 0
   440   000044                     	ds	1
   441   000045                     led_intalize@F3054:
   442                           	callstack 0
   443   000045                     	ds	1
   444   000046                     _int1:
   445                           	callstack 0
   446   000046                     	ds	7
   447                           
   448                           	psect	dataCOMRAM
   449   00004D                     __pdataCOMRAM:
   450                           	callstack 0
   451   00004D                     _lat_registers:
   452                           	callstack 0
   453   00004D                     	ds	10
   454   000057                     _tris_registers:
   455                           	callstack 0
   456   000057                     	ds	10
   457   000061                     spi_slave_mode_configuration@F3145:
   458                           	callstack 0
   459   000061                     	ds	1
   460   000062                     spi_slave_mode_configuration@F3143:
   461                           	callstack 0
   462   000062                     	ds	1
   463   000063                     spi_slave_mode_configuration@F3141:
   464                           	callstack 0
   465   000063                     	ds	1
   466   000064                     spi_slave_mode_configuration@F3139:
   467                           	callstack 0
   468   000064                     	ds	1
   469   000065                     spi_master_mode_configuration@F3135:
   470                           	callstack 0
   471   000065                     	ds	1
   472   000066                     spi_master_mode_configuration@F3133:
   473                           	callstack 0
   474   000066                     	ds	1
   475   000067                     spi_master_mode_configuration@F3131:
   476                           	callstack 0
   477   000067                     	ds	1
   478   000068                     _RB7_Flag:
   479                           	callstack 0
   480   000068                     	ds	1
   481   000069                     _RB6_Flag:
   482                           	callstack 0
   483   000069                     	ds	1
   484   00006A                     _RB5_Flag:
   485                           	callstack 0
   486   00006A                     	ds	1
   487   00006B                     _RB4_Flag:
   488                           	callstack 0
   489   00006B                     	ds	1
   490                           
   491                           	psect	bssBANK0
   492   000080                     __pbssBANK0:
   493                           	callstack 0
   494   000080                     	ds	6
   495   000086                     _ccp_obj:
   496                           	callstack 0
   497   000086                     	ds	11
   498                           
   499                           	psect	dataBANK0
   500   000091                     __pdataBANK0:
   501                           	callstack 0
   502   000091                     _port_registers:
   503                           	callstack 0
   504   000091                     	ds	10
   505                           
   506                           	psect	cstackCOMRAM
   507   00006C                     __pcstackCOMRAM:
   508                           	callstack 0
   509   00006C                     RB4_ISR@RB4_source:
   510                           	callstack 0
   511   00006C                     RB5_ISR@RB5_source:
   512                           	callstack 0
   513   00006C                     RB6_ISR@RB6_source:
   514                           	callstack 0
   515   00006C                     RB7_ISR@RB7_source:
   516                           	callstack 0
   517                           
   518                           ; 1 bytes @ 0x0
   519   00006C                     	ds	1
   520   00006D                     ccp_interrupt@_ccp:
   521                           	callstack 0
   522   00006D                     selected_timer@_ccp:
   523                           	callstack 0
   524   00006D                     gpio_pin_direction_intialize@__pin_t:
   525                           	callstack 0
   526   00006D                     gpio_pin_write_logic@_pin_t:
   527                           	callstack 0
   528   00006D                     MODE_configure@hal_timer1$F3585@TMR:
   529                           	callstack 0
   530   00006D                     register_configure@hal_timer1$F3591@TMR:
   531                           	callstack 0
   532   00006D                     OSC_configure@TMR:
   533                           	callstack 0
   534                           
   535                           ; 1 bytes @ 0x1
   536   00006D                     	ds	1
   537   00006E                     ??_gpio_pin_direction_intialize:
   538   00006E                     gpio_pin_write_logic@logic:
   539                           	callstack 0
   540   00006E                     TMR1_Init@TMR:
   541                           	callstack 0
   542                           
   543                           ; 1 bytes @ 0x2
   544   00006E                     	ds	1
   545   00006F                     ??_gpio_pin_write_logic:
   546   00006F                     ??_TMR1_Init:
   547   00006F                     configure_mode@_ccp:
   548                           	callstack 0
   549                           
   550                           ; 1 bytes @ 0x3
   551   00006F                     	ds	1
   552   000070                     ??_configure_mode:
   553                           
   554                           ; 1 bytes @ 0x4
   555   000070                     	ds	1
   556   000071                     
   557                           ; 1 bytes @ 0x5
   558   000071                     	ds	2
   559   000073                     gpio_pin_direction_intialize@ret:
   560                           	callstack 0
   561                           
   562                           ; 1 bytes @ 0x7
   563   000073                     	ds	1
   564   000074                     gpio_pin_write_logic@ret:
   565                           	callstack 0
   566                           
   567                           ; 1 bytes @ 0x8
   568   000074                     	ds	1
   569   000075                     gpio_pin_intialize@_pin_t:
   570                           	callstack 0
   571                           
   572                           ; 1 bytes @ 0x9
   573   000075                     	ds	1
   574   000076                     ??_gpio_pin_intialize:
   575                           
   576                           ; 1 bytes @ 0xA
   577   000076                     	ds	1
   578   000077                     gpio_pin_intialize@ret:
   579                           	callstack 0
   580                           
   581                           ; 1 bytes @ 0xB
   582   000077                     	ds	1
   583   000078                     CCP_INIt@_ccp:
   584                           	callstack 0
   585                           
   586                           ; 1 bytes @ 0xC
   587   000078                     	ds	1
   588   000079                     
   589                           ; 1 bytes @ 0xD
   590   000079                     	ds	1
   591   00007A                     
   592                           ; 1 bytes @ 0xE
   593 ;;
   594 ;;Main: autosize = 0, tempsize = 0, incstack = 0, save=0
   595 ;;
   596 ;; *************** function _main *****************
   597 ;; Defined at:
   598 ;;		line 41 in file "application.c"
   599 ;; Parameters:    Size  Location     Type
   600 ;;		None
   601 ;; Auto vars:     Size  Location     Type
   602 ;;		None
   603 ;; Return value:  Size  Location     Type
   604 ;;                  2  1641[None  ] int 
   605 ;; Registers used:
   606 ;;		wreg, fsr2l, fsr2h, status,2, status,0, prodl, prodh, cstack
   607 ;; Tracked objects:
   608 ;;		On entry : 0/0
   609 ;;		On exit  : 0/0
   610 ;;		Unchanged: 0/0
   611 ;; Data sizes:     COMRAM   BANK0   BANK1   BANK2   BANK3   BANK4   BANK5   BANK6   BANK7   BANK8   BANK9  BANK10  BANK1
      +1  BANK12  BANK13  BANK14  BANK15
   612 ;;      Params:         0       0       0       0       0       0       0       0       0       0       0       0       
      +0       0       0       0       0
   613 ;;      Locals:         0       0       0       0       0       0       0       0       0       0       0       0       
      +0       0       0       0       0
   614 ;;      Temps:          0       0       0       0       0       0       0       0       0       0       0       0       
      +0       0       0       0       0
   615 ;;      Totals:         0       0       0       0       0       0       0       0       0       0       0       0       
      +0       0       0       0       0
   616 ;;Total ram usage:        0 bytes
   617 ;; Hardware stack levels required when called: 6
   618 ;; This function calls:
   619 ;;		_ccp_init
   620 ;;		_interrupt_init1
   621 ;; This function is called by:
   622 ;;		Startup code after reset
   623 ;; This function uses a non-reentrant model
   624 ;;
   625                           
   626                           	psect	text0
   627   001D70                     __ptext0:
   628                           	callstack 0
   629   001D70                     _main:
   630                           	callstack 25
   631   001D70                     
   632                           ;application.c: 42: interrupt_init1();
   633   001D70  EC62  F00E         	call	_interrupt_init1	;wreg free
   634   001D74                     
   635                           ;application.c: 43:   ccp_init();
   636   001D74  EC06  F00E         	call	_ccp_init	;wreg free
   637   001D78                     l1642:
   638   001D78  EFBC  F00E         	goto	l1642
   639   001D7C  EF07  F000         	goto	start
   640   001D80                     __end_of_main:
   641                           	callstack 0
   642                           
   643 ;; *************** function _interrupt_init1 *****************
   644 ;; Defined at:
   645 ;;		line 27 in file "application.c"
   646 ;; Parameters:    Size  Location     Type
   647 ;;		None
   648 ;; Auto vars:     Size  Location     Type
   649 ;;		None
   650 ;; Return value:  Size  Location     Type
   651 ;;                  1    wreg      void 
   652 ;; Registers used:
   653 ;;		wreg, fsr2l, fsr2h, status,2, status,0, cstack
   654 ;; Tracked objects:
   655 ;;		On entry : 0/0
   656 ;;		On exit  : 0/0
   657 ;;		Unchanged: 0/0
   658 ;; Data sizes:     COMRAM   BANK0   BANK1   BANK2   BANK3   BANK4   BANK5   BANK6   BANK7   BANK8   BANK9  BANK10  BANK1
      +1  BANK12  BANK13  BANK14  BANK15
   659 ;;      Params:         0       0       0       0       0       0       0       0       0       0       0       0       
      +0       0       0       0       0
   660 ;;      Locals:         0       0       0       0       0       0       0       0       0       0       0       0       
      +0       0       0       0       0
   661 ;;      Temps:          0       0       0       0       0       0       0       0       0       0       0       0       
      +0       0       0       0       0
   662 ;;      Totals:         0       0       0       0       0       0       0       0       0       0       0       0       
      +0       0       0       0       0
   663 ;;Total ram usage:        0 bytes
   664 ;; Hardware stack levels used: 1
   665 ;; Hardware stack levels required when called: 4
   666 ;; This function calls:
   667 ;;		_TMR1_Init
   668 ;; This function is called by:
   669 ;;		_main
   670 ;; This function uses a non-reentrant model
   671 ;;
   672                           
   673                           	psect	text1
   674   001CC4                     __ptext1:
   675                           	callstack 0
   676   001CC4                     _interrupt_init1:
   677                           	callstack 26
   678   001CC4                     
   679                           ;application.c: 28: int1.Prescaler_value = TIMER1_PRESCALER_DIV_1 ;
   680   001CC4  0E00               	movlw	0
   681   001CC6  6E49               	movwf	(_int1+3)^0,c
   682   001CC8                     
   683                           ;application.c: 29: int1.TIMER1_INTERRUPT_HANDLER = ((void*)0) ;
   684   001CC8  0E00               	movlw	0
   685   001CCA  6E46               	movwf	_int1^0,c
   686   001CCC  0E00               	movlw	0
   687   001CCE  6E47               	movwf	(_int1+1)^0,c
   688   001CD0                     
   689                           ;application.c: 31: int1.timer1_mode = 0 ;
   690   001CD0  904C               	bcf	(_int1+6)^0,0,c
   691   001CD2                     
   692                           ;application.c: 32: int1.timer1_osc_cfg = 0 ;
   693   001CD2  924C               	bcf	(_int1+6)^0,1,c
   694   001CD4                     
   695                           ;application.c: 33: int1.timer1_preload_value = 0 ;
   696   001CD4  0E00               	movlw	0
   697   001CD6  6E4B               	movwf	(_int1+5)^0,c
   698   001CD8  0E00               	movlw	0
   699   001CDA  6E4A               	movwf	(_int1+4)^0,c
   700   001CDC                     
   701                           ;application.c: 34: int1.timer1_register_size = 1 ;
   702   001CDC  844C               	bsf	(_int1+6)^0,2,c
   703   001CDE                     
   704                           ;application.c: 35: TMR1_Init(&int1);
   705   001CDE  0E46               	movlw	low _int1
   706   001CE0  6E6E               	movwf	TMR1_Init@TMR^0,c
   707   001CE2  EC86  F00C         	call	_TMR1_Init	;wreg free
   708   001CE6  0012               	return		;funcret
   709   001CE8                     __end_of_interrupt_init1:
   710                           	callstack 0
   711                           
   712 ;; *************** function _TMR1_Init *****************
   713 ;; Defined at:
   714 ;;		line 23 in file "MCAL_Layer/TIMER1/hal_timer1.c"
   715 ;; Parameters:    Size  Location     Type
   716 ;;  TMR             1    2[COMRAM] PTR const struct .
   717 ;;		 -> int1(7), 
   718 ;; Auto vars:     Size  Location     Type
   719 ;;  ret             1    0        unsigned char 
   720 ;; Return value:  Size  Location     Type
   721 ;;                  1    wreg      unsigned char 
   722 ;; Registers used:
   723 ;;		wreg, fsr2l, fsr2h, status,2, status,0, cstack
   724 ;; Tracked objects:
   725 ;;		On entry : 0/0
   726 ;;		On exit  : 0/0
   727 ;;		Unchanged: 0/0
   728 ;; Data sizes:     COMRAM   BANK0   BANK1   BANK2   BANK3   BANK4   BANK5   BANK6   BANK7   BANK8   BANK9  BANK10  BANK1
      +1  BANK12  BANK13  BANK14  BANK15
   729 ;;      Params:         1       0       0       0       0       0       0       0       0       0       0       0       
      +0       0       0       0       0
   730 ;;      Locals:         0       0       0       0       0       0       0       0       0       0       0       0       
      +0       0       0       0       0
   731 ;;      Temps:          2       0       0       0       0       0       0       0       0       0       0       0       
      +0       0       0       0       0
   732 ;;      Totals:         3       0       0       0       0       0       0       0       0       0       0       0       
      +0       0       0       0       0
   733 ;;Total ram usage:        3 bytes
   734 ;; Hardware stack levels used: 1
   735 ;; Hardware stack levels required when called: 3
   736 ;; This function calls:
   737 ;;		_MODE_configure@hal_timer1$F3585
   738 ;;		_OSC_configure
   739 ;;		_register_configure@hal_timer1$F3591
   740 ;; This function is called by:
   741 ;;		_interrupt_init1
   742 ;; This function uses a non-reentrant model
   743 ;;
   744                           
   745                           	psect	text2
   746   00190C                     __ptext2:
   747                           	callstack 0
   748   00190C                     _TMR1_Init:
   749                           	callstack 26
   750   00190C                     
   751                           ;MCAL_Layer/TIMER1/hal_timer1.c: 25:     if(((void*)0) == TMR){
   752   00190C  506E               	movf	TMR1_Init@TMR^0,w,c
   753   00190E  A4D8               	btfss	status,2,c
   754   001910  EF8C  F00C         	goto	u4031
   755   001914  EF8E  F00C         	goto	u4030
   756   001918                     u4031:
   757   001918  EF90  F00C         	goto	l1467
   758   00191C                     u4030:
   759   00191C                     
   760                           ;MCAL_Layer/TIMER1/hal_timer1.c: 27:     }else
   761   00191C  EFD4  F00C         	goto	l1469
   762   001920                     l1467:
   763                           
   764                           ;MCAL_Layer/TIMER1/hal_timer1.c: 28:     {;MCAL_Layer/TIMER1/hal_timer1.c: 30:         (
      +                          T1CONbits.TMR1ON = 0);
   765   001920  90CD               	bcf	205,0,c	;volatile
   766   001922                     
   767                           ;MCAL_Layer/TIMER1/hal_timer1.c: 31:         MODE_configure(TMR);
   768   001922  C06E  F06D         	movff	TMR1_Init@TMR,MODE_configure@hal_timer1$F3585@TMR
   769   001926  ECD5  F00C         	call	_MODE_configure@hal_timer1$F3585	;wreg free
   770                           
   771                           ;MCAL_Layer/TIMER1/hal_timer1.c: 32:         register_configure(TMR);
   772   00192A  C06E  F06D         	movff	TMR1_Init@TMR,register_configure@hal_timer1$F3591@TMR
   773   00192E  EC28  F00E         	call	_register_configure@hal_timer1$F3591	;wreg free
   774                           
   775                           ;MCAL_Layer/TIMER1/hal_timer1.c: 33:         OSC_configure(TMR);
   776   001932  C06E  F06D         	movff	TMR1_Init@TMR,OSC_configure@TMR
   777   001936  EC45  F00E         	call	_OSC_configure	;wreg free
   778   00193A                     
   779                           ;MCAL_Layer/TIMER1/hal_timer1.c: 34:         (T1CONbits.T1CKPS = TMR->Prescaler_value);
   780   00193A  506E               	movf	TMR1_Init@TMR^0,w,c
   781   00193C  6ED9               	movwf	fsr2l,c
   782   00193E  6ADA               	clrf	fsr2h,c
   783   001940  0E03               	movlw	3
   784   001942  26D9               	addwf	fsr2l,f,c
   785   001944  50DF               	movf	indf2,w,c
   786   001946  6E6F               	movwf	??_TMR1_Init^0,c
   787   001948  3A6F               	swapf	??_TMR1_Init^0,f,c
   788   00194A  50CD               	movf	205,w,c	;volatile
   789   00194C  186F               	xorwf	??_TMR1_Init^0,w,c
   790   00194E  0BCF               	andlw	-49
   791   001950  186F               	xorwf	??_TMR1_Init^0,w,c
   792   001952  6ECD               	movwf	205,c	;volatile
   793   001954                     
   794                           ;MCAL_Layer/TIMER1/hal_timer1.c: 35:         TMR1H = ((TMR->timer1_preload_value)>>8);
   795   001954  506E               	movf	TMR1_Init@TMR^0,w,c
   796   001956  6ED9               	movwf	fsr2l,c
   797   001958  6ADA               	clrf	fsr2h,c
   798   00195A  0E04               	movlw	4
   799   00195C  26D9               	addwf	fsr2l,f,c
   800   00195E  CFDE F06F          	movff	postinc2,??_TMR1_Init
   801   001962  CFDD F070          	movff	postdec2,??_TMR1_Init+1
   802   001966  C070  F06F         	movff	??_TMR1_Init+1,??_TMR1_Init
   803   00196A  6A70               	clrf	(??_TMR1_Init+1)^0,c
   804   00196C  506F               	movf	??_TMR1_Init^0,w,c
   805   00196E  6ECF               	movwf	207,c	;volatile
   806   001970                     
   807                           ;MCAL_Layer/TIMER1/hal_timer1.c: 36:         TMR1L = (uint8)(TMR->timer1_preload_value);
   808   001970  506E               	movf	TMR1_Init@TMR^0,w,c
   809   001972  6ED9               	movwf	fsr2l,c
   810   001974  6ADA               	clrf	fsr2h,c
   811   001976  0E04               	movlw	4
   812   001978  26D9               	addwf	fsr2l,f,c
   813   00197A  50DF               	movf	indf2,w,c
   814   00197C  6ECE               	movwf	206,c	;volatile
   815   00197E                     
   816                           ;MCAL_Layer/TIMER1/hal_timer1.c: 37:         preload_value= TMR->timer1_preload_value ;
   817   00197E  506E               	movf	TMR1_Init@TMR^0,w,c
   818   001980  6ED9               	movwf	fsr2l,c
   819   001982  6ADA               	clrf	fsr2h,c
   820   001984  0E04               	movlw	4
   821   001986  26D9               	addwf	fsr2l,f,c
   822   001988  CFDE F00B          	movff	postinc2,_preload_value@hal_timer1$F3666	;volatile
   823   00198C  CFDD F00C          	movff	postdec2,_preload_value@hal_timer1$F3666+1	;volatile
   824   001990                     
   825                           ;MCAL_Layer/TIMER1/hal_timer1.c: 39:         (PIE1bits.TMR1IE =1);
   826   001990  809D               	bsf	157,0,c	;volatile
   827   001992                     
   828                           ;MCAL_Layer/TIMER1/hal_timer1.c: 40:         (PIR1bits.TMR1IF = 0 );
   829   001992  909E               	bcf	158,0,c	;volatile
   830   001994                     
   831                           ;MCAL_Layer/TIMER1/hal_timer1.c: 41:         TIMER1_INTERRUPPT_HANDLERF = TMR->TIMER1_IN
      +                          TERRUPT_HANDLER ;
   832   001994  506E               	movf	TMR1_Init@TMR^0,w,c
   833   001996  6ED9               	movwf	fsr2l,c
   834   001998  6ADA               	clrf	fsr2h,c
   835   00199A  CFDE F009          	movff	postinc2,_TIMER1_INTERRUPPT_HANDLERF
   836   00199E  CFDD F00A          	movff	postdec2,_TIMER1_INTERRUPPT_HANDLERF+1
   837   0019A2                     
   838                           ;MCAL_Layer/TIMER1/hal_timer1.c: 54:         (INTCONbits.PEIE = 1);
   839   0019A2  8CF2               	bsf	242,6,c	;volatile
   840   0019A4                     
   841                           ;MCAL_Layer/TIMER1/hal_timer1.c: 55:         (INTCONbits.GIE = 1);
   842   0019A4  8EF2               	bsf	242,7,c	;volatile
   843   0019A6                     
   844                           ;MCAL_Layer/TIMER1/hal_timer1.c: 58:         (T1CONbits.TMR1ON = 1);
   845   0019A6  80CD               	bsf	205,0,c	;volatile
   846   0019A8                     l1469:
   847   0019A8  0012               	return		;funcret
   848   0019AA                     __end_of_TMR1_Init:
   849                           	callstack 0
   850                           
   851 ;; *************** function _register_configure@hal_timer1$F3591 *****************
   852 ;; Defined at:
   853 ;;		line 138 in file "MCAL_Layer/TIMER1/hal_timer1.c"
   854 ;; Parameters:    Size  Location     Type
   855 ;;  TMR             1    1[COMRAM] PTR const struct .
   856 ;;		 -> int1(7), 
   857 ;; Auto vars:     Size  Location     Type
   858 ;;		None
   859 ;; Return value:  Size  Location     Type
   860 ;;                  1    wreg      void 
   861 ;; Registers used:
   862 ;;		wreg, fsr2l, fsr2h, status,2, status,0
   863 ;; Tracked objects:
   864 ;;		On entry : 0/0
   865 ;;		On exit  : 0/0
   866 ;;		Unchanged: 0/0
   867 ;; Data sizes:     COMRAM   BANK0   BANK1   BANK2   BANK3   BANK4   BANK5   BANK6   BANK7   BANK8   BANK9  BANK10  BANK1
      +1  BANK12  BANK13  BANK14  BANK15
   868 ;;      Params:         1       0       0       0       0       0       0       0       0       0       0       0       
      +0       0       0       0       0
   869 ;;      Locals:         0       0       0       0       0       0       0       0       0       0       0       0       
      +0       0       0       0       0
   870 ;;      Temps:          0       0       0       0       0       0       0       0       0       0       0       0       
      +0       0       0       0       0
   871 ;;      Totals:         1       0       0       0       0       0       0       0       0       0       0       0       
      +0       0       0       0       0
   872 ;;Total ram usage:        1 bytes
   873 ;; Hardware stack levels used: 1
   874 ;; Hardware stack levels required when called: 2
   875 ;; This function calls:
   876 ;;		Nothing
   877 ;; This function is called by:
   878 ;;		_TMR1_Init
   879 ;; This function uses a non-reentrant model
   880 ;;
   881                           
   882                           	psect	text3
   883   001C50                     __ptext3:
   884                           	callstack 0
   885   001C50                     _register_configure@hal_timer1$F3591:
   886                           	callstack 26
   887   001C50                     
   888                           ;MCAL_Layer/TIMER1/hal_timer1.c: 139:     if(1 == TMR->timer1_register_size){
   889   001C50  506D               	movf	register_configure@hal_timer1$F3591@TMR^0,w,c
   890   001C52  6ED9               	movwf	fsr2l,c
   891   001C54  6ADA               	clrf	fsr2h,c
   892   001C56  0E06               	movlw	6
   893   001C58  26D9               	addwf	fsr2l,f,c
   894   001C5A  A4DF               	btfss	indf2,2,c
   895   001C5C  EF32  F00E         	goto	u3891
   896   001C60  EF34  F00E         	goto	u3890
   897   001C64                     u3891:
   898   001C64  EF37  F00E         	goto	l5393
   899   001C68                     u3890:
   900   001C68                     
   901                           ;MCAL_Layer/TIMER1/hal_timer1.c: 140:     (T1CONbits.RD16 = 1) ;
   902   001C68  8ECD               	bsf	205,7,c	;volatile
   903                           
   904                           ;MCAL_Layer/TIMER1/hal_timer1.c: 141:     }else if(0 == TMR->timer1_register_size){
   905   001C6A  EF44  F00E         	goto	l1507
   906   001C6E                     l5393:
   907   001C6E  506D               	movf	register_configure@hal_timer1$F3591@TMR^0,w,c
   908   001C70  6ED9               	movwf	fsr2l,c
   909   001C72  6ADA               	clrf	fsr2h,c
   910   001C74  0E06               	movlw	6
   911   001C76  26D9               	addwf	fsr2l,f,c
   912   001C78  B4DF               	btfsc	indf2,2,c
   913   001C7A  EF41  F00E         	goto	u3901
   914   001C7E  EF43  F00E         	goto	u3900
   915   001C82                     u3901:
   916   001C82  EF44  F00E         	goto	l1507
   917   001C86                     u3900:
   918   001C86                     
   919                           ;MCAL_Layer/TIMER1/hal_timer1.c: 142:     (T1CONbits.RD16 = 0) ;
   920   001C86  9ECD               	bcf	205,7,c	;volatile
   921   001C88                     l1507:
   922   001C88  0012               	return		;funcret
   923   001C8A                     __end_of_register_configure@hal_timer1$F3591:
   924                           	callstack 0
   925                           
   926 ;; *************** function _OSC_configure *****************
   927 ;; Defined at:
   928 ;;		line 148 in file "MCAL_Layer/TIMER1/hal_timer1.c"
   929 ;; Parameters:    Size  Location     Type
   930 ;;  TMR             1    1[COMRAM] PTR const struct .
   931 ;;		 -> int1(7), 
   932 ;; Auto vars:     Size  Location     Type
   933 ;;		None
   934 ;; Return value:  Size  Location     Type
   935 ;;                  1    wreg      void 
   936 ;; Registers used:
   937 ;;		wreg, fsr2l, fsr2h, status,2, status,0
   938 ;; Tracked objects:
   939 ;;		On entry : 0/0
   940 ;;		On exit  : 0/0
   941 ;;		Unchanged: 0/0
   942 ;; Data sizes:     COMRAM   BANK0   BANK1   BANK2   BANK3   BANK4   BANK5   BANK6   BANK7   BANK8   BANK9  BANK10  BANK1
      +1  BANK12  BANK13  BANK14  BANK15
   943 ;;      Params:         1       0       0       0       0       0       0       0       0       0       0       0       
      +0       0       0       0       0
   944 ;;      Locals:         0       0       0       0       0       0       0       0       0       0       0       0       
      +0       0       0       0       0
   945 ;;      Temps:          0       0       0       0       0       0       0       0       0       0       0       0       
      +0       0       0       0       0
   946 ;;      Totals:         1       0       0       0       0       0       0       0       0       0       0       0       
      +0       0       0       0       0
   947 ;;Total ram usage:        1 bytes
   948 ;; Hardware stack levels used: 1
   949 ;; Hardware stack levels required when called: 2
   950 ;; This function calls:
   951 ;;		Nothing
   952 ;; This function is called by:
   953 ;;		_TMR1_Init
   954 ;; This function uses a non-reentrant model
   955 ;;
   956                           
   957                           	psect	text4
   958   001C8A                     __ptext4:
   959                           	callstack 0
   960   001C8A                     _OSC_configure:
   961                           	callstack 26
   962   001C8A                     
   963                           ;MCAL_Layer/TIMER1/hal_timer1.c: 149:     if(1 == TMR->timer1_osc_cfg){
   964   001C8A  506D               	movf	OSC_configure@TMR^0,w,c
   965   001C8C  6ED9               	movwf	fsr2l,c
   966   001C8E  6ADA               	clrf	fsr2h,c
   967   001C90  0E06               	movlw	6
   968   001C92  26D9               	addwf	fsr2l,f,c
   969   001C94  A2DF               	btfss	indf2,1,c
   970   001C96  EF4F  F00E         	goto	u3911
   971   001C9A  EF51  F00E         	goto	u3910
   972   001C9E                     u3911:
   973   001C9E  EF54  F00E         	goto	l5401
   974   001CA2                     u3910:
   975   001CA2                     
   976                           ;MCAL_Layer/TIMER1/hal_timer1.c: 150:         (T1CONbits.T1OSCEN = 1);
   977   001CA2  86CD               	bsf	205,3,c	;volatile
   978                           
   979                           ;MCAL_Layer/TIMER1/hal_timer1.c: 152:     }else if(0 == TMR->timer1_osc_cfg){
   980   001CA4  EF61  F00E         	goto	l1514
   981   001CA8                     l5401:
   982   001CA8  506D               	movf	OSC_configure@TMR^0,w,c
   983   001CAA  6ED9               	movwf	fsr2l,c
   984   001CAC  6ADA               	clrf	fsr2h,c
   985   001CAE  0E06               	movlw	6
   986   001CB0  26D9               	addwf	fsr2l,f,c
   987   001CB2  B2DF               	btfsc	indf2,1,c
   988   001CB4  EF5E  F00E         	goto	u3921
   989   001CB8  EF60  F00E         	goto	u3920
   990   001CBC                     u3921:
   991   001CBC  EF61  F00E         	goto	l1514
   992   001CC0                     u3920:
   993   001CC0                     
   994                           ;MCAL_Layer/TIMER1/hal_timer1.c: 153:     (T1CONbits.T1OSCEN = 0);
   995   001CC0  96CD               	bcf	205,3,c	;volatile
   996   001CC2                     l1514:
   997   001CC2  0012               	return		;funcret
   998   001CC4                     __end_of_OSC_configure:
   999                           	callstack 0
  1000                           
  1001 ;; *************** function _MODE_configure@hal_timer1$F3585 *****************
  1002 ;; Defined at:
  1003 ;;		line 119 in file "MCAL_Layer/TIMER1/hal_timer1.c"
  1004 ;; Parameters:    Size  Location     Type
  1005 ;;  TMR             1    1[COMRAM] PTR const struct .
  1006 ;;		 -> int1(7), 
  1007 ;; Auto vars:     Size  Location     Type
  1008 ;;		None
  1009 ;; Return value:  Size  Location     Type
  1010 ;;                  1    wreg      void 
  1011 ;; Registers used:
  1012 ;;		wreg, fsr2l, fsr2h, status,2, status,0
  1013 ;; Tracked objects:
  1014 ;;		On entry : 0/0
  1015 ;;		On exit  : 0/0
  1016 ;;		Unchanged: 0/0
  1017 ;; Data sizes:     COMRAM   BANK0   BANK1   BANK2   BANK3   BANK4   BANK5   BANK6   BANK7   BANK8   BANK9  BANK10  BANK1
      +1  BANK12  BANK13  BANK14  BANK15
  1018 ;;      Params:         1       0       0       0       0       0       0       0       0       0       0       0       
      +0       0       0       0       0
  1019 ;;      Locals:         0       0       0       0       0       0       0       0       0       0       0       0       
      +0       0       0       0       0
  1020 ;;      Temps:          0       0       0       0       0       0       0       0       0       0       0       0       
      +0       0       0       0       0
  1021 ;;      Totals:         1       0       0       0       0       0       0       0       0       0       0       0       
      +0       0       0       0       0
  1022 ;;Total ram usage:        1 bytes
  1023 ;; Hardware stack levels used: 1
  1024 ;; Hardware stack levels required when called: 2
  1025 ;; This function calls:
  1026 ;;		Nothing
  1027 ;; This function is called by:
  1028 ;;		_TMR1_Init
  1029 ;; This function uses a non-reentrant model
  1030 ;;
  1031                           
  1032                           	psect	text5
  1033   0019AA                     __ptext5:
  1034                           	callstack 0
  1035   0019AA                     _MODE_configure@hal_timer1$F3585:
  1036                           	callstack 26
  1037   0019AA                     
  1038                           ;MCAL_Layer/TIMER1/hal_timer1.c: 120:     if(1 == TMR->timer1_mode)
  1039   0019AA  506D               	movf	MODE_configure@hal_timer1$F3585@TMR^0,w,c
  1040   0019AC  6ED9               	movwf	fsr2l,c
  1041   0019AE  6ADA               	clrf	fsr2h,c
  1042   0019B0  0E06               	movlw	6
  1043   0019B2  26D9               	addwf	fsr2l,f,c
  1044   0019B4  A0DF               	btfss	indf2,0,c
  1045   0019B6  EFDF  F00C         	goto	u3851
  1046   0019BA  EFE1  F00C         	goto	u3850
  1047   0019BE                     u3851:
  1048   0019BE  EF02  F00D         	goto	l5385
  1049   0019C2                     u3850:
  1050   0019C2                     
  1051                           ;MCAL_Layer/TIMER1/hal_timer1.c: 121:     {;MCAL_Layer/TIMER1/hal_timer1.c: 122:     (T1
      +                          CONbits.TMR1CS = 1 );
  1052   0019C2  82CD               	bsf	205,1,c	;volatile
  1053   0019C4                     
  1054                           ;MCAL_Layer/TIMER1/hal_timer1.c: 123:      if(0 == TMR->counter_mode){
  1055   0019C4  506D               	movf	MODE_configure@hal_timer1$F3585@TMR^0,w,c
  1056   0019C6  6ED9               	movwf	fsr2l,c
  1057   0019C8  6ADA               	clrf	fsr2h,c
  1058   0019CA  0E06               	movlw	6
  1059   0019CC  26D9               	addwf	fsr2l,f,c
  1060   0019CE  B6DF               	btfsc	indf2,3,c
  1061   0019D0  EFEC  F00C         	goto	u3861
  1062   0019D4  EFEE  F00C         	goto	u3860
  1063   0019D8                     u3861:
  1064   0019D8  EFF1  F00C         	goto	l5381
  1065   0019DC                     u3860:
  1066   0019DC                     
  1067                           ;MCAL_Layer/TIMER1/hal_timer1.c: 124:     (T1CONbits.T1SYNC = 0) ;
  1068   0019DC  94CD               	bcf	205,2,c	;volatile
  1069                           
  1070                           ;MCAL_Layer/TIMER1/hal_timer1.c: 125:     }
  1071   0019DE  EF0F  F00D         	goto	l1500
  1072   0019E2                     l5381:
  1073   0019E2  506D               	movf	MODE_configure@hal_timer1$F3585@TMR^0,w,c
  1074   0019E4  6ED9               	movwf	fsr2l,c
  1075   0019E6  6ADA               	clrf	fsr2h,c
  1076   0019E8  0E06               	movlw	6
  1077   0019EA  26D9               	addwf	fsr2l,f,c
  1078   0019EC  A6DF               	btfss	indf2,3,c
  1079   0019EE  EFFB  F00C         	goto	u3871
  1080   0019F2  EFFD  F00C         	goto	u3870
  1081   0019F6                     u3871:
  1082   0019F6  EF00  F00D         	goto	l1494
  1083   0019FA                     u3870:
  1084   0019FA                     
  1085                           ;MCAL_Layer/TIMER1/hal_timer1.c: 127:      (T1CONbits.T1SYNC = 1) ;
  1086   0019FA  84CD               	bsf	205,2,c	;volatile
  1087                           
  1088                           ;MCAL_Layer/TIMER1/hal_timer1.c: 128:     }else{
  1089   0019FC  EF0F  F00D         	goto	l1500
  1090   001A00                     l1494:
  1091                           
  1092                           ;MCAL_Layer/TIMER1/hal_timer1.c: 131:     }
  1093   001A00  EF0F  F00D         	goto	l1500
  1094   001A04                     l5385:
  1095   001A04  506D               	movf	MODE_configure@hal_timer1$F3585@TMR^0,w,c
  1096   001A06  6ED9               	movwf	fsr2l,c
  1097   001A08  6ADA               	clrf	fsr2h,c
  1098   001A0A  0E06               	movlw	6
  1099   001A0C  26D9               	addwf	fsr2l,f,c
  1100   001A0E  B0DF               	btfsc	indf2,0,c
  1101   001A10  EF0C  F00D         	goto	u3881
  1102   001A14  EF0E  F00D         	goto	u3880
  1103   001A18                     u3881:
  1104   001A18  EF0F  F00D         	goto	l1500
  1105   001A1C                     u3880:
  1106   001A1C                     
  1107                           ;MCAL_Layer/TIMER1/hal_timer1.c: 133:     {;MCAL_Layer/TIMER1/hal_timer1.c: 134:     (T1
      +                          CONbits.TMR1CS = 0 );
  1108   001A1C  92CD               	bcf	205,1,c	;volatile
  1109   001A1E                     l1500:
  1110   001A1E  0012               	return		;funcret
  1111   001A20                     __end_of_MODE_configure@hal_timer1$F3585:
  1112                           	callstack 0
  1113                           
  1114 ;; *************** function _ccp_init *****************
  1115 ;; Defined at:
  1116 ;;		line 13 in file "application.c"
  1117 ;; Parameters:    Size  Location     Type
  1118 ;;		None
  1119 ;; Auto vars:     Size  Location     Type
  1120 ;;		None
  1121 ;; Return value:  Size  Location     Type
  1122 ;;                  1    wreg      void 
  1123 ;; Registers used:
  1124 ;;		wreg, fsr2l, fsr2h, status,2, status,0, prodl, prodh, cstack
  1125 ;; Tracked objects:
  1126 ;;		On entry : 0/0
  1127 ;;		On exit  : 0/0
  1128 ;;		Unchanged: 0/0
  1129 ;; Data sizes:     COMRAM   BANK0   BANK1   BANK2   BANK3   BANK4   BANK5   BANK6   BANK7   BANK8   BANK9  BANK10  BANK1
      +1  BANK12  BANK13  BANK14  BANK15
  1130 ;;      Params:         0       0       0       0       0       0       0       0       0       0       0       0       
      +0       0       0       0       0
  1131 ;;      Locals:         0       0       0       0       0       0       0       0       0       0       0       0       
      +0       0       0       0       0
  1132 ;;      Temps:          0       0       0       0       0       0       0       0       0       0       0       0       
      +0       0       0       0       0
  1133 ;;      Totals:         0       0       0       0       0       0       0       0       0       0       0       0       
      +0       0       0       0       0
  1134 ;;Total ram usage:        0 bytes
  1135 ;; Hardware stack levels used: 1
  1136 ;; Hardware stack levels required when called: 5
  1137 ;; This function calls:
  1138 ;;		_CCP_INIt
  1139 ;; This function is called by:
  1140 ;;		_main
  1141 ;; This function uses a non-reentrant model
  1142 ;;
  1143                           
  1144                           	psect	text6
  1145   001C0C                     __ptext6:
  1146                           	callstack 0
  1147   001C0C                     _ccp_init:
  1148                           	callstack 25
  1149   001C0C                     
  1150                           ;application.c: 14: ccp_obj.CCP1_INTERRUPT_HANDLER =((void*)0) ;
  1151   001C0C  0E00               	movlw	0
  1152   001C0E  0100               	movlb	0	; () banked
  1153   001C10  6F86               	movwf	_ccp_obj& (0+255),b
  1154   001C12  0E00               	movlw	0
  1155   001C14  6F87               	movwf	(_ccp_obj+1)& (0+255),b
  1156                           
  1157                           ;application.c: 15: ccp_obj.CCP2_INTERRUPT_HANDLER = ((void*)0) ;
  1158   001C16  0E00               	movlw	0
  1159   001C18  6F89               	movwf	(_ccp_obj+3)& (0+255),b
  1160   001C1A  0E00               	movlw	0
  1161   001C1C  6F8A               	movwf	(_ccp_obj+4)& (0+255),b
  1162   001C1E                     
  1163                           ; BSR set to: 0
  1164                           ;application.c: 16: ccp_obj.CCP_Mode = CCP_MODULE_CAPTURE_MODE ;
  1165   001C1E  0E01               	movlw	1
  1166   001C20  6F8D               	movwf	(_ccp_obj+7)& (0+255),b
  1167   001C22                     
  1168                           ; BSR set to: 0
  1169                           ;application.c: 17: ccp_obj.Sub_mode = (uint8)(0x02) ;
  1170   001C22  518E               	movf	(_ccp_obj+8)& (0+255),w,b
  1171   001C24  0BF0               	andlw	-16
  1172   001C26  0902               	iorlw	2
  1173   001C28  6F8E               	movwf	(_ccp_obj+8)& (0+255),b
  1174   001C2A                     
  1175                           ; BSR set to: 0
  1176                           ;application.c: 18: ccp_obj.ccp_inst= CCP1_INST ;
  1177   001C2A  0E00               	movlw	0
  1178   001C2C  6F8C               	movwf	(_ccp_obj+6)& (0+255),b
  1179   001C2E                     
  1180                           ; BSR set to: 0
  1181                           ;application.c: 19: ccp_obj.ccp_pin.direction = INPUT ;
  1182   001C2E  8D90               	bsf	(_ccp_obj+10)& (0+255),6,b
  1183   001C30                     
  1184                           ; BSR set to: 0
  1185                           ;application.c: 20: ccp_obj.ccp_pin.logic = LOGIC_LOW ;
  1186   001C30  9F90               	bcf	(_ccp_obj+10)& (0+255),7,b
  1187   001C32                     
  1188                           ; BSR set to: 0
  1189                           ;application.c: 21: ccp_obj.ccp_pin.pin =PIN2;
  1190   001C32  5190               	movf	(_ccp_obj+10)& (0+255),w,b
  1191   001C34  0BC7               	andlw	-57
  1192   001C36  0910               	iorlw	16
  1193   001C38  6F90               	movwf	(_ccp_obj+10)& (0+255),b
  1194   001C3A                     
  1195                           ; BSR set to: 0
  1196                           ;application.c: 22: ccp_obj.ccp_pin.port =PORTC_INDEX ;
  1197   001C3A  5190               	movf	(_ccp_obj+10)& (0+255),w,b
  1198   001C3C  0BF8               	andlw	-8
  1199   001C3E  0902               	iorlw	2
  1200   001C40  6F90               	movwf	(_ccp_obj+10)& (0+255),b
  1201   001C42                     
  1202                           ; BSR set to: 0
  1203                           ;application.c: 23: ccp_obj.tmr =TIMER1_FOR_CCP1_CCP2 ;
  1204   001C42  0E00               	movlw	0
  1205   001C44  6F8F               	movwf	(_ccp_obj+9)& (0+255),b
  1206   001C46                     
  1207                           ; BSR set to: 0
  1208                           ;application.c: 24: CCP_INIt(&ccp_obj);
  1209   001C46  0E86               	movlw	low _ccp_obj
  1210   001C48  6E78               	movwf	CCP_INIt@_ccp^0,c
  1211   001C4A  EC10  F00D         	call	_CCP_INIt	;wreg free
  1212   001C4E  0012               	return		;funcret
  1213   001C50                     __end_of_ccp_init:
  1214                           	callstack 0
  1215                           
  1216 ;; *************** function _CCP_INIt *****************
  1217 ;; Defined at:
  1218 ;;		line 11 in file "MCAL_Layer/CPP1/hal_ccp.c"
  1219 ;; Parameters:    Size  Location     Type
  1220 ;;  _ccp            1   12[COMRAM] PTR const struct .
  1221 ;;		 -> ccp_obj(11), 
  1222 ;; Auto vars:     Size  Location     Type
  1223 ;;  ret             1    0        unsigned char 
  1224 ;; Return value:  Size  Location     Type
  1225 ;;                  1    wreg      unsigned char 
  1226 ;; Registers used:
  1227 ;;		wreg, fsr2l, fsr2h, status,2, status,0, prodl, prodh, cstack
  1228 ;; Tracked objects:
  1229 ;;		On entry : 0/0
  1230 ;;		On exit  : 0/0
  1231 ;;		Unchanged: 0/0
  1232 ;; Data sizes:     COMRAM   BANK0   BANK1   BANK2   BANK3   BANK4   BANK5   BANK6   BANK7   BANK8   BANK9  BANK10  BANK1
      +1  BANK12  BANK13  BANK14  BANK15
  1233 ;;      Params:         1       0       0       0       0       0       0       0       0       0       0       0       
      +0       0       0       0       0
  1234 ;;      Locals:         0       0       0       0       0       0       0       0       0       0       0       0       
      +0       0       0       0       0
  1235 ;;      Temps:          1       0       0       0       0       0       0       0       0       0       0       0       
      +0       0       0       0       0
  1236 ;;      Totals:         2       0       0       0       0       0       0       0       0       0       0       0       
      +0       0       0       0       0
  1237 ;;Total ram usage:        2 bytes
  1238 ;; Hardware stack levels used: 1
  1239 ;; Hardware stack levels required when called: 4
  1240 ;; This function calls:
  1241 ;;		_ccp_interrupt
  1242 ;;		_configure_mode
  1243 ;;		_gpio_pin_intialize
  1244 ;; This function is called by:
  1245 ;;		_ccp_init
  1246 ;; This function uses a non-reentrant model
  1247 ;;
  1248                           
  1249                           	psect	text7
  1250   001A20                     __ptext7:
  1251                           	callstack 0
  1252   001A20                     _CCP_INIt:
  1253                           	callstack 25
  1254   001A20                     
  1255                           ;MCAL_Layer/CPP1/hal_ccp.c: 13:     if(((void*)0) == _ccp){
  1256   001A20  5078               	movf	CCP_INIt@_ccp^0,w,c
  1257   001A22  A4D8               	btfss	status,2,c
  1258   001A24  EF16  F00D         	goto	u4001
  1259   001A28  EF18  F00D         	goto	u4000
  1260   001A2C                     u4001:
  1261   001A2C  EF1A  F00D         	goto	l5497
  1262   001A30                     u4000:
  1263   001A30                     
  1264                           ;MCAL_Layer/CPP1/hal_ccp.c: 15:     }else{
  1265   001A30  EF47  F00D         	goto	l500
  1266   001A34                     l5497:
  1267                           
  1268                           ;MCAL_Layer/CPP1/hal_ccp.c: 17:         if(CCP1_INST==_ccp->ccp_inst){
  1269   001A34  5078               	movf	CCP_INIt@_ccp^0,w,c
  1270   001A36  6ED9               	movwf	fsr2l,c
  1271   001A38  6ADA               	clrf	fsr2h,c
  1272   001A3A  0E06               	movlw	6
  1273   001A3C  26D9               	addwf	fsr2l,f,c
  1274   001A3E  50DF               	movf	indf2,w,c
  1275   001A40  A4D8               	btfss	status,2,c
  1276   001A42  EF25  F00D         	goto	u4011
  1277   001A46  EF27  F00D         	goto	u4010
  1278   001A4A                     u4011:
  1279   001A4A  EF2B  F00D         	goto	l5501
  1280   001A4E                     u4010:
  1281   001A4E                     
  1282                           ;MCAL_Layer/CPP1/hal_ccp.c: 18:         (CCP1CONbits.CCP1M =(uint8)(0x00));
  1283   001A4E  0EF0               	movlw	-16
  1284   001A50  16BD               	andwf	189,f,c	;volatile
  1285                           
  1286                           ;MCAL_Layer/CPP1/hal_ccp.c: 19:         }else
  1287   001A52  EF3A  F00D         	goto	l5505
  1288   001A56                     l5501:
  1289                           
  1290                           ;MCAL_Layer/CPP1/hal_ccp.c: 20:              if(CCP2_INST==_ccp->ccp_inst){
  1291   001A56  5078               	movf	CCP_INIt@_ccp^0,w,c
  1292   001A58  6ED9               	movwf	fsr2l,c
  1293   001A5A  6ADA               	clrf	fsr2h,c
  1294   001A5C  0E06               	movlw	6
  1295   001A5E  26D9               	addwf	fsr2l,f,c
  1296   001A60  04DE               	decf	postinc2,w,c
  1297   001A62  A4D8               	btfss	status,2,c
  1298   001A64  EF36  F00D         	goto	u4021
  1299   001A68  EF38  F00D         	goto	u4020
  1300   001A6C                     u4021:
  1301   001A6C  EF3A  F00D         	goto	l5505
  1302   001A70                     u4020:
  1303   001A70                     
  1304                           ;MCAL_Layer/CPP1/hal_ccp.c: 21:         (CCP2CONbits.CCP2M =(uint8)(0x00));
  1305   001A70  0EF0               	movlw	-16
  1306   001A72  16BA               	andwf	186,f,c	;volatile
  1307   001A74                     l5505:
  1308   001A74  5078               	movf	CCP_INIt@_ccp^0,w,c
  1309   001A76  0F0A               	addlw	10
  1310   001A78  6E75               	movwf	gpio_pin_intialize@_pin_t^0,c
  1311   001A7A  ECAC  F00D         	call	_gpio_pin_intialize	;wreg free
  1312   001A7E                     
  1313                           ;MCAL_Layer/CPP1/hal_ccp.c: 25:       configure_mode(_ccp);
  1314   001A7E  C078  F06F         	movff	CCP_INIt@_ccp,configure_mode@_ccp
  1315   001A82  EC0C  F00A         	call	_configure_mode	;wreg free
  1316   001A86                     
  1317                           ;MCAL_Layer/CPP1/hal_ccp.c: 26:       ccp_interrupt(_ccp);
  1318   001A86  C078  F06D         	movff	CCP_INIt@_ccp,ccp_interrupt@_ccp
  1319   001A8A  ECDB  F00D         	call	_ccp_interrupt	;wreg free
  1320   001A8E                     l500:
  1321   001A8E  0012               	return		;funcret
  1322   001A90                     __end_of_CCP_INIt:
  1323                           	callstack 0
  1324                           
  1325 ;; *************** function _gpio_pin_intialize *****************
  1326 ;; Defined at:
  1327 ;;		line 155 in file "MCAL_Layer/GPIO/hal_gpio.c"
  1328 ;; Parameters:    Size  Location     Type
  1329 ;;  _pin_t          1    9[COMRAM] PTR struct .
  1330 ;;		 -> spi_slave_mode_configuration@SS_PIN(1), spi_slave_mode_configuration@SKL(1), spi_slave_mode_configuration@SDI(1)
      +, spi_slave_mode_configuration@SDO(1), 
  1331 ;;		 -> spi_master_mode_configuration@SKL(1), spi_master_mode_configuration@SDI(1), spi_master_mode_configuration@SDO(1)
      +, ccp_obj$ccp_pin(1), 
  1332 ;;		 -> ccp_obj(11), relay_initalize@obj(1), led_intalize@obj(1), 
  1333 ;; Auto vars:     Size  Location     Type
  1334 ;;  ret             1   11[COMRAM] unsigned char 
  1335 ;; Return value:  Size  Location     Type
  1336 ;;                  1    wreg      unsigned char 
  1337 ;; Registers used:
  1338 ;;		wreg, fsr2l, fsr2h, status,2, status,0, prodl, prodh, cstack
  1339 ;; Tracked objects:
  1340 ;;		On entry : 0/0
  1341 ;;		On exit  : 0/0
  1342 ;;		Unchanged: 0/0
  1343 ;; Data sizes:     COMRAM   BANK0   BANK1   BANK2   BANK3   BANK4   BANK5   BANK6   BANK7   BANK8   BANK9  BANK10  BANK1
      +1  BANK12  BANK13  BANK14  BANK15
  1344 ;;      Params:         1       0       0       0       0       0       0       0       0       0       0       0       
      +0       0       0       0       0
  1345 ;;      Locals:         1       0       0       0       0       0       0       0       0       0       0       0       
      +0       0       0       0       0
  1346 ;;      Temps:          1       0       0       0       0       0       0       0       0       0       0       0       
      +0       0       0       0       0
  1347 ;;      Totals:         3       0       0       0       0       0       0       0       0       0       0       0       
      +0       0       0       0       0
  1348 ;;Total ram usage:        3 bytes
  1349 ;; Hardware stack levels used: 1
  1350 ;; Hardware stack levels required when called: 3
  1351 ;; This function calls:
  1352 ;;		_gpio_pin_direction_intialize
  1353 ;;		_gpio_pin_write_logic
  1354 ;; This function is called by:
  1355 ;;		_CCP_INIt
  1356 ;;		_Segment_initalize
  1357 ;;		_lcd_4bit_initialize
  1358 ;;		_lcd_8bit_initialize
  1359 ;;		_motor_initialize
  1360 ;;		_keypad_initialize
  1361 ;;		_led_intalize
  1362 ;;		_relay_initalize
  1363 ;;		_spi_master_mode_configuration
  1364 ;;		_spi_slave_mode_configuration
  1365 ;; This function uses a non-reentrant model
  1366 ;;
  1367                           
  1368                           	psect	text8
  1369   001B58                     __ptext8:
  1370                           	callstack 0
  1371   001B58                     _gpio_pin_intialize:
  1372                           	callstack 25
  1373   001B58                     
  1374                           ;MCAL_Layer/GPIO/hal_gpio.c: 158:     if((((void*)0) ==_pin_t)|| _pin_t->pin > (8)-1 )
  1375   001B58  5075               	movf	gpio_pin_intialize@_pin_t^0,w,c
  1376   001B5A  B4D8               	btfsc	status,2,c
  1377   001B5C  EFB2  F00D         	goto	u3751
  1378   001B60  EFB4  F00D         	goto	u3750
  1379   001B64                     u3751:
  1380   001B64  EFC4  F00D         	goto	l5253
  1381   001B68                     u3750:
  1382   001B68  5075               	movf	gpio_pin_intialize@_pin_t^0,w,c
  1383   001B6A  6ED9               	movwf	fsr2l,c
  1384   001B6C  6ADA               	clrf	fsr2h,c
  1385   001B6E  30DF               	rrcf	223,w,c
  1386   001B70  32E8               	rrcf	wreg,f,c
  1387   001B72  32E8               	rrcf	wreg,f,c
  1388   001B74  0B07               	andlw	7
  1389   001B76  6E76               	movwf	??_gpio_pin_intialize^0,c
  1390   001B78  0E07               	movlw	7
  1391   001B7A  6476               	cpfsgt	??_gpio_pin_intialize^0,c
  1392   001B7C  EFC2  F00D         	goto	u3761
  1393   001B80  EFC4  F00D         	goto	u3760
  1394   001B84                     u3761:
  1395   001B84  EFC8  F00D         	goto	l5255
  1396   001B88                     u3760:
  1397   001B88                     l5253:
  1398                           
  1399                           ;MCAL_Layer/GPIO/hal_gpio.c: 159:     {;MCAL_Layer/GPIO/hal_gpio.c: 160:         ret =(S
      +                          td_ReturnType)0x00;
  1400   001B88  0E00               	movlw	0
  1401   001B8A  6E77               	movwf	gpio_pin_intialize@ret^0,c
  1402                           
  1403                           ;MCAL_Layer/GPIO/hal_gpio.c: 161:     }
  1404   001B8C  EFD9  F00D         	goto	l5257
  1405   001B90                     l5255:
  1406                           
  1407                           ;MCAL_Layer/GPIO/hal_gpio.c: 163:     {;MCAL_Layer/GPIO/hal_gpio.c: 164:         ret = g
      +                          pio_pin_direction_intialize(_pin_t);
  1408   001B90  C075  F06D         	movff	gpio_pin_intialize@_pin_t,gpio_pin_direction_intialize@__pin_t
  1409   001B94  EC6B  F00B         	call	_gpio_pin_direction_intialize	;wreg free
  1410   001B98  6E77               	movwf	gpio_pin_intialize@ret^0,c
  1411                           
  1412                           ;MCAL_Layer/GPIO/hal_gpio.c: 165:         ret = gpio_pin_write_logic(_pin_t ,_pin_t->log
      +                          ic);
  1413   001B9A  C075  F06D         	movff	gpio_pin_intialize@_pin_t,gpio_pin_write_logic@_pin_t
  1414   001B9E  5075               	movf	gpio_pin_intialize@_pin_t^0,w,c
  1415   001BA0  6ED9               	movwf	fsr2l,c
  1416   001BA2  6ADA               	clrf	fsr2h,c
  1417   001BA4  0E00               	movlw	0
  1418   001BA6  BEDF               	btfsc	indf2,7,c
  1419   001BA8  0E01               	movlw	1
  1420   001BAA  6E6E               	movwf	gpio_pin_write_logic@logic^0,c
  1421   001BAC  ECFE  F00B         	call	_gpio_pin_write_logic	;wreg free
  1422   001BB0  6E77               	movwf	gpio_pin_intialize@ret^0,c
  1423   001BB2                     l5257:
  1424                           
  1425                           ;MCAL_Layer/GPIO/hal_gpio.c: 169: return ret;
  1426   001BB2  5077               	movf	gpio_pin_intialize@ret^0,w,c
  1427   001BB4  0012               	return		;funcret
  1428   001BB6                     __end_of_gpio_pin_intialize:
  1429                           	callstack 0
  1430                           
  1431 ;; *************** function _gpio_pin_write_logic *****************
  1432 ;; Defined at:
  1433 ;;		line 77 in file "MCAL_Layer/GPIO/hal_gpio.c"
  1434 ;; Parameters:    Size  Location     Type
  1435 ;;  _pin_t          1    1[COMRAM] PTR const struct .
  1436 ;;		 -> spi_slave_mode_configuration@SS_PIN(1), spi_slave_mode_configuration@SKL(1), spi_slave_mode_configuration@SDI(1)
      +, spi_slave_mode_configuration@SDO(1), 
  1437 ;;		 -> spi_master_mode_configuration@SKL(1), spi_master_mode_configuration@SDI(1), spi_master_mode_configuration@SDO(1)
      +, ccp_obj$ccp_pin(1), 
  1438 ;;		 -> ccp_obj(11), relay_off@obj(1), relay_on@obj(1), relay_initalize@obj(1), 
  1439 ;;		 -> led_off@obj(1), led_on@obj(1), led_intalize@obj(1), 
  1440 ;;  logic           1    2[COMRAM] enum E2978
  1441 ;; Auto vars:     Size  Location     Type
  1442 ;;  ret             1    8[COMRAM] unsigned char 
  1443 ;; Return value:  Size  Location     Type
  1444 ;;                  1    wreg      unsigned char 
  1445 ;; Registers used:
  1446 ;;		wreg, fsr2l, fsr2h, status,2, status,0, prodl, prodh
  1447 ;; Tracked objects:
  1448 ;;		On entry : 0/0
  1449 ;;		On exit  : 0/0
  1450 ;;		Unchanged: 0/0
  1451 ;; Data sizes:     COMRAM   BANK0   BANK1   BANK2   BANK3   BANK4   BANK5   BANK6   BANK7   BANK8   BANK9  BANK10  BANK1
      +1  BANK12  BANK13  BANK14  BANK15
  1452 ;;      Params:         2       0       0       0       0       0       0       0       0       0       0       0       
      +0       0       0       0       0
  1453 ;;      Locals:         1       0       0       0       0       0       0       0       0       0       0       0       
      +0       0       0       0       0
  1454 ;;      Temps:          5       0       0       0       0       0       0       0       0       0       0       0       
      +0       0       0       0       0
  1455 ;;      Totals:         8       0       0       0       0       0       0       0       0       0       0       0       
      +0       0       0       0       0
  1456 ;;Total ram usage:        8 bytes
  1457 ;; Hardware stack levels used: 1
  1458 ;; Hardware stack levels required when called: 2
  1459 ;; This function calls:
  1460 ;;		Nothing
  1461 ;; This function is called by:
  1462 ;;		_gpio_pin_intialize
  1463 ;;		_Segment_Write_number
  1464 ;;		_lcd_4bit_send_command
  1465 ;;		_lcd_4bit_send_data_char
  1466 ;;		_lcd_8bit_send_command
  1467 ;;		_lcd_8bit_send_data_char
  1468 ;;		_lcd_send_4bit_command_data
  1469 ;;		_lcd_send_8bit_enable
  1470 ;;		_lcd_send_4bit_enable
  1471 ;;		_motor_move_right
  1472 ;;		_motor_move_left
  1473 ;;		_motor_stop
  1474 ;;		_keypad_get_value
  1475 ;;		_led_on
  1476 ;;		_led_off
  1477 ;;		_relay_on
  1478 ;;		_relay_off
  1479 ;; This function uses a non-reentrant model
  1480 ;;
  1481                           
  1482                           	psect	text9
  1483   0017FC                     __ptext9:
  1484                           	callstack 0
  1485   0017FC                     _gpio_pin_write_logic:
  1486                           	callstack 25
  1487   0017FC                     
  1488                           ;MCAL_Layer/GPIO/hal_gpio.c: 78:     Std_ReturnType ret = (Std_ReturnType)0x01;
  1489   0017FC  0E01               	movlw	1
  1490   0017FE  6E74               	movwf	gpio_pin_write_logic@ret^0,c
  1491                           
  1492                           ;MCAL_Layer/GPIO/hal_gpio.c: 79:     if( ((void*)0) ==_pin_t || _pin_t->pin > (8)-1 )
  1493   001800  506D               	movf	gpio_pin_write_logic@_pin_t^0,w,c
  1494   001802  B4D8               	btfsc	status,2,c
  1495   001804  EF06  F00C         	goto	u3621
  1496   001808  EF08  F00C         	goto	u3620
  1497   00180C                     u3621:
  1498   00180C  EF18  F00C         	goto	l5197
  1499   001810                     u3620:
  1500   001810  506D               	movf	gpio_pin_write_logic@_pin_t^0,w,c
  1501   001812  6ED9               	movwf	fsr2l,c
  1502   001814  6ADA               	clrf	fsr2h,c
  1503   001816  30DF               	rrcf	223,w,c
  1504   001818  32E8               	rrcf	wreg,f,c
  1505   00181A  32E8               	rrcf	wreg,f,c
  1506   00181C  0B07               	andlw	7
  1507   00181E  6E6F               	movwf	??_gpio_pin_write_logic^0,c
  1508   001820  0E07               	movlw	7
  1509   001822  646F               	cpfsgt	??_gpio_pin_write_logic^0,c
  1510   001824  EF16  F00C         	goto	u3631
  1511   001828  EF18  F00C         	goto	u3630
  1512   00182C                     u3631:
  1513   00182C  EF6F  F00C         	goto	l5205
  1514   001830                     u3630:
  1515   001830                     l5197:
  1516                           
  1517                           ;MCAL_Layer/GPIO/hal_gpio.c: 80:     {;MCAL_Layer/GPIO/hal_gpio.c: 81:         ret = (St
      +                          d_ReturnType)0x00;
  1518   001830  0E00               	movlw	0
  1519   001832  6E74               	movwf	gpio_pin_write_logic@ret^0,c
  1520                           
  1521                           ;MCAL_Layer/GPIO/hal_gpio.c: 82:     }
  1522   001834  EF84  F00C         	goto	l5207
  1523   001838                     l5199:
  1524                           
  1525                           ;MCAL_Layer/GPIO/hal_gpio.c: 87:               (*lat_registers[_pin_t->port] |= ( (uint8
      +                          ) 1 << _pin_t->pin )) ;
  1526   001838  506D               	movf	gpio_pin_write_logic@_pin_t^0,w,c
  1527   00183A  6ED9               	movwf	fsr2l,c
  1528   00183C  6ADA               	clrf	fsr2h,c
  1529   00183E  30DF               	rrcf	223,w,c
  1530   001840  32E8               	rrcf	wreg,f,c
  1531   001842  32E8               	rrcf	wreg,f,c
  1532   001844  0B07               	andlw	7
  1533   001846  6E6F               	movwf	??_gpio_pin_write_logic^0,c
  1534   001848  0E01               	movlw	1
  1535   00184A  6E70               	movwf	(??_gpio_pin_write_logic+1)^0,c
  1536   00184C  2A6F               	incf	??_gpio_pin_write_logic^0,f,c
  1537   00184E  EF2B  F00C         	goto	u3644
  1538   001852                     u3645:
  1539   001852  90D8               	bcf	status,0,c
  1540   001854  3670               	rlcf	(??_gpio_pin_write_logic+1)^0,f,c
  1541   001856                     u3644:
  1542   001856  2E6F               	decfsz	??_gpio_pin_write_logic^0,f,c
  1543   001858  EF29  F00C         	goto	u3645
  1544   00185C  506D               	movf	gpio_pin_write_logic@_pin_t^0,w,c
  1545   00185E  6ED9               	movwf	fsr2l,c
  1546   001860  6ADA               	clrf	fsr2h,c
  1547   001862  50DF               	movf	223,w,c
  1548   001864  0B07               	andlw	7
  1549   001866  0D02               	mullw	2
  1550   001868  50F3               	movf	243,w,c
  1551   00186A  0F4D               	addlw	low _lat_registers
  1552   00186C  6ED9               	movwf	fsr2l,c
  1553   00186E  6ADA               	clrf	fsr2h,c
  1554   001870  CFDE F071          	movff	postinc2,??_gpio_pin_write_logic+2
  1555   001874  CFDD F072          	movff	postdec2,??_gpio_pin_write_logic+3
  1556   001878  C071  FFD9         	movff	??_gpio_pin_write_logic+2,fsr2l
  1557   00187C  C072  FFDA         	movff	??_gpio_pin_write_logic+3,fsr2h
  1558   001880  5070               	movf	(??_gpio_pin_write_logic+1)^0,w,c
  1559   001882  12DF               	iorwf	indf2,f,c
  1560                           
  1561                           ;MCAL_Layer/GPIO/hal_gpio.c: 88:               break;
  1562   001884  EF84  F00C         	goto	l5207
  1563   001888                     l5201:
  1564                           
  1565                           ;MCAL_Layer/GPIO/hal_gpio.c: 90:             (*lat_registers[_pin_t->port] &= ~( (uint8)
      +                           1 << _pin_t->pin )) ;
  1566   001888  506D               	movf	gpio_pin_write_logic@_pin_t^0,w,c
  1567   00188A  6ED9               	movwf	fsr2l,c
  1568   00188C  6ADA               	clrf	fsr2h,c
  1569   00188E  30DF               	rrcf	223,w,c
  1570   001890  32E8               	rrcf	wreg,f,c
  1571   001892  32E8               	rrcf	wreg,f,c
  1572   001894  0B07               	andlw	7
  1573   001896  6E6F               	movwf	??_gpio_pin_write_logic^0,c
  1574   001898  0E01               	movlw	1
  1575   00189A  6E70               	movwf	(??_gpio_pin_write_logic+1)^0,c
  1576   00189C  2A6F               	incf	??_gpio_pin_write_logic^0,f,c
  1577   00189E  EF53  F00C         	goto	u3654
  1578   0018A2                     u3655:
  1579   0018A2  90D8               	bcf	status,0,c
  1580   0018A4  3670               	rlcf	(??_gpio_pin_write_logic+1)^0,f,c
  1581   0018A6                     u3654:
  1582   0018A6  2E6F               	decfsz	??_gpio_pin_write_logic^0,f,c
  1583   0018A8  EF51  F00C         	goto	u3655
  1584   0018AC  5070               	movf	(??_gpio_pin_write_logic+1)^0,w,c
  1585   0018AE  0AFF               	xorlw	255
  1586   0018B0  6E71               	movwf	(??_gpio_pin_write_logic+2)^0,c
  1587   0018B2  506D               	movf	gpio_pin_write_logic@_pin_t^0,w,c
  1588   0018B4  6ED9               	movwf	fsr2l,c
  1589   0018B6  6ADA               	clrf	fsr2h,c
  1590   0018B8  50DF               	movf	223,w,c
  1591   0018BA  0B07               	andlw	7
  1592   0018BC  0D02               	mullw	2
  1593   0018BE  50F3               	movf	243,w,c
  1594   0018C0  0F4D               	addlw	low _lat_registers
  1595   0018C2  6ED9               	movwf	fsr2l,c
  1596   0018C4  6ADA               	clrf	fsr2h,c
  1597   0018C6  CFDE F072          	movff	postinc2,??_gpio_pin_write_logic+3
  1598   0018CA  CFDD F073          	movff	postdec2,??_gpio_pin_write_logic+4
  1599   0018CE  C072  FFD9         	movff	??_gpio_pin_write_logic+3,fsr2l
  1600   0018D2  C073  FFDA         	movff	??_gpio_pin_write_logic+4,fsr2h
  1601   0018D6  5071               	movf	(??_gpio_pin_write_logic+2)^0,w,c
  1602   0018D8  16DF               	andwf	indf2,f,c
  1603                           
  1604                           ;MCAL_Layer/GPIO/hal_gpio.c: 91:             break;
  1605   0018DA  EF84  F00C         	goto	l5207
  1606   0018DE                     l5205:
  1607   0018DE  506E               	movf	gpio_pin_write_logic@logic^0,w,c
  1608   0018E0  6E6F               	movwf	??_gpio_pin_write_logic^0,c
  1609   0018E2  6A70               	clrf	(??_gpio_pin_write_logic+1)^0,c
  1610                           
  1611                           ; Switch on 2 bytes has been partitioned into a top level switch of size 1, and 1 sub-sw
      +                          itches
  1612                           ; Switch size 1, requested type "simple"
  1613                           ; Number of cases is 1, Range of values is 0 to 0
  1614                           ; switch strategies available:
  1615                           ; Name         Instructions Cycles
  1616                           ; simple_byte            4     3 (average)
  1617                           ;	Chosen strategy is simple_byte
  1618   0018E4  5070               	movf	(??_gpio_pin_write_logic+1)^0,w,c
  1619   0018E6  0A00               	xorlw	0	; case 0
  1620   0018E8  B4D8               	btfsc	status,2,c
  1621   0018EA  EF79  F00C         	goto	l6521
  1622   0018EE  EF18  F00C         	goto	l5197
  1623   0018F2                     l6521:
  1624                           
  1625                           ; Switch size 1, requested type "simple"
  1626                           ; Number of cases is 2, Range of values is 0 to 1
  1627                           ; switch strategies available:
  1628                           ; Name         Instructions Cycles
  1629                           ; simple_byte            7     4 (average)
  1630                           ;	Chosen strategy is simple_byte
  1631   0018F2  506F               	movf	??_gpio_pin_write_logic^0,w,c
  1632   0018F4  0A00               	xorlw	0	; case 0
  1633   0018F6  B4D8               	btfsc	status,2,c
  1634   0018F8  EF44  F00C         	goto	l5201
  1635   0018FC  0A01               	xorlw	1	; case 1
  1636   0018FE  B4D8               	btfsc	status,2,c
  1637   001900  EF1C  F00C         	goto	l5199
  1638   001904  EF18  F00C         	goto	l5197
  1639   001908                     l5207:
  1640                           
  1641                           ;MCAL_Layer/GPIO/hal_gpio.c: 98:     return ret;
  1642   001908  5074               	movf	gpio_pin_write_logic@ret^0,w,c
  1643   00190A  0012               	return		;funcret
  1644   00190C                     __end_of_gpio_pin_write_logic:
  1645                           	callstack 0
  1646                           
  1647 ;; *************** function _gpio_pin_direction_intialize *****************
  1648 ;; Defined at:
  1649 ;;		line 22 in file "MCAL_Layer/GPIO/hal_gpio.c"
  1650 ;; Parameters:    Size  Location     Type
  1651 ;;  __pin_t         1    1[COMRAM] PTR const struct .
  1652 ;;		 -> spi_slave_mode_configuration@SS_PIN(1), spi_slave_mode_configuration@SKL(1), spi_slave_mode_configuration@SDI(1)
      +, spi_slave_mode_configuration@SDO(1), 
  1653 ;;		 -> spi_master_mode_configuration@SKL(1), spi_master_mode_configuration@SDI(1), spi_master_mode_configuration@SDO(1)
      +, ccp_obj$ccp_pin(1), 
  1654 ;;		 -> ccp_obj(11), relay_initalize@obj(1), led_intalize@obj(1), 
  1655 ;; Auto vars:     Size  Location     Type
  1656 ;;  ret             1    7[COMRAM] unsigned char 
  1657 ;; Return value:  Size  Location     Type
  1658 ;;                  1    wreg      unsigned char 
  1659 ;; Registers used:
  1660 ;;		wreg, fsr2l, fsr2h, status,2, status,0, prodl, prodh
  1661 ;; Tracked objects:
  1662 ;;		On entry : 0/0
  1663 ;;		On exit  : 0/0
  1664 ;;		Unchanged: 0/0
  1665 ;; Data sizes:     COMRAM   BANK0   BANK1   BANK2   BANK3   BANK4   BANK5   BANK6   BANK7   BANK8   BANK9  BANK10  BANK1
      +1  BANK12  BANK13  BANK14  BANK15
  1666 ;;      Params:         1       0       0       0       0       0       0       0       0       0       0       0       
      +0       0       0       0       0
  1667 ;;      Locals:         1       0       0       0       0       0       0       0       0       0       0       0       
      +0       0       0       0       0
  1668 ;;      Temps:          5       0       0       0       0       0       0       0       0       0       0       0       
      +0       0       0       0       0
  1669 ;;      Totals:         7       0       0       0       0       0       0       0       0       0       0       0       
      +0       0       0       0       0
  1670 ;;Total ram usage:        7 bytes
  1671 ;; Hardware stack levels used: 1
  1672 ;; Hardware stack levels required when called: 2
  1673 ;; This function calls:
  1674 ;;		Nothing
  1675 ;; This function is called by:
  1676 ;;		_gpio_pin_intialize
  1677 ;;		_button_initalize
  1678 ;;		_keypad_initialize
  1679 ;;		_Interrupt_RBx_Init
  1680 ;;		_Interrupt_INTx_Pin_init
  1681 ;;		_Interrupt_RBx_Pin_init
  1682 ;; This function uses a non-reentrant model
  1683 ;;
  1684                           
  1685                           	psect	text10
  1686   0016D6                     __ptext10:
  1687                           	callstack 0
  1688   0016D6                     _gpio_pin_direction_intialize:
  1689                           	callstack 25
  1690   0016D6                     
  1691                           ;MCAL_Layer/GPIO/hal_gpio.c: 23:     Std_ReturnType ret = (Std_ReturnType)0x01;
  1692   0016D6  0E01               	movlw	1
  1693   0016D8  6E73               	movwf	gpio_pin_direction_intialize@ret^0,c
  1694                           
  1695                           ;MCAL_Layer/GPIO/hal_gpio.c: 24:     if( ((void*)0) ==__pin_t ||__pin_t ->pin > (8)-1 )
  1696   0016DA  506D               	movf	gpio_pin_direction_intialize@__pin_t^0,w,c
  1697   0016DC  B4D8               	btfsc	status,2,c
  1698   0016DE  EF73  F00B         	goto	u3661
  1699   0016E2  EF75  F00B         	goto	u3660
  1700   0016E6                     u3661:
  1701   0016E6  EF85  F00B         	goto	l5219
  1702   0016EA                     u3660:
  1703   0016EA  506D               	movf	gpio_pin_direction_intialize@__pin_t^0,w,c
  1704   0016EC  6ED9               	movwf	fsr2l,c
  1705   0016EE  6ADA               	clrf	fsr2h,c
  1706   0016F0  30DF               	rrcf	223,w,c
  1707   0016F2  32E8               	rrcf	wreg,f,c
  1708   0016F4  32E8               	rrcf	wreg,f,c
  1709   0016F6  0B07               	andlw	7
  1710   0016F8  6E6E               	movwf	??_gpio_pin_direction_intialize^0,c
  1711   0016FA  0E07               	movlw	7
  1712   0016FC  646E               	cpfsgt	??_gpio_pin_direction_intialize^0,c
  1713   0016FE  EF83  F00B         	goto	u3671
  1714   001702  EF85  F00B         	goto	u3670
  1715   001706                     u3671:
  1716   001706  EFDC  F00B         	goto	l5227
  1717   00170A                     u3670:
  1718   00170A                     l5219:
  1719                           
  1720                           ;MCAL_Layer/GPIO/hal_gpio.c: 25:     {;MCAL_Layer/GPIO/hal_gpio.c: 26:         ret = (St
      +                          d_ReturnType)0x00;
  1721   00170A  0E00               	movlw	0
  1722   00170C  6E73               	movwf	gpio_pin_direction_intialize@ret^0,c
  1723                           
  1724                           ;MCAL_Layer/GPIO/hal_gpio.c: 27:     }
  1725   00170E  EFFC  F00B         	goto	l5229
  1726   001712                     l5221:
  1727                           
  1728                           ;MCAL_Layer/GPIO/hal_gpio.c: 33:             (*tris_registers[__pin_t ->port] &= ~( (uin
      +                          t8) 1 << __pin_t ->pin ));
  1729   001712  506D               	movf	gpio_pin_direction_intialize@__pin_t^0,w,c
  1730   001714  6ED9               	movwf	fsr2l,c
  1731   001716  6ADA               	clrf	fsr2h,c
  1732   001718  30DF               	rrcf	223,w,c
  1733   00171A  32E8               	rrcf	wreg,f,c
  1734   00171C  32E8               	rrcf	wreg,f,c
  1735   00171E  0B07               	andlw	7
  1736   001720  6E6E               	movwf	??_gpio_pin_direction_intialize^0,c
  1737   001722  0E01               	movlw	1
  1738   001724  6E6F               	movwf	(??_gpio_pin_direction_intialize+1)^0,c
  1739   001726  2A6E               	incf	??_gpio_pin_direction_intialize^0,f,c
  1740   001728  EF98  F00B         	goto	u3684
  1741   00172C                     u3685:
  1742   00172C  90D8               	bcf	status,0,c
  1743   00172E  366F               	rlcf	(??_gpio_pin_direction_intialize+1)^0,f,c
  1744   001730                     u3684:
  1745   001730  2E6E               	decfsz	??_gpio_pin_direction_intialize^0,f,c
  1746   001732  EF96  F00B         	goto	u3685
  1747   001736  506F               	movf	(??_gpio_pin_direction_intialize+1)^0,w,c
  1748   001738  0AFF               	xorlw	255
  1749   00173A  6E70               	movwf	(??_gpio_pin_direction_intialize+2)^0,c
  1750   00173C  506D               	movf	gpio_pin_direction_intialize@__pin_t^0,w,c
  1751   00173E  6ED9               	movwf	fsr2l,c
  1752   001740  6ADA               	clrf	fsr2h,c
  1753   001742  50DF               	movf	223,w,c
  1754   001744  0B07               	andlw	7
  1755   001746  0D02               	mullw	2
  1756   001748  50F3               	movf	243,w,c
  1757   00174A  0F57               	addlw	low _tris_registers
  1758   00174C  6ED9               	movwf	fsr2l,c
  1759   00174E  6ADA               	clrf	fsr2h,c
  1760   001750  CFDE F071          	movff	postinc2,??_gpio_pin_direction_intialize+3
  1761   001754  CFDD F072          	movff	postdec2,??_gpio_pin_direction_intialize+4
  1762   001758  C071  FFD9         	movff	??_gpio_pin_direction_intialize+3,fsr2l
  1763   00175C  C072  FFDA         	movff	??_gpio_pin_direction_intialize+4,fsr2h
  1764   001760  5070               	movf	(??_gpio_pin_direction_intialize+2)^0,w,c
  1765   001762  16DF               	andwf	indf2,f,c
  1766                           
  1767                           ;MCAL_Layer/GPIO/hal_gpio.c: 34:             break;
  1768   001764  EFFC  F00B         	goto	l5229
  1769   001768                     l5223:
  1770                           
  1771                           ;MCAL_Layer/GPIO/hal_gpio.c: 36:             (*tris_registers[__pin_t ->port] |= ( (uint
      +                          8) 1 << __pin_t ->pin ));
  1772   001768  506D               	movf	gpio_pin_direction_intialize@__pin_t^0,w,c
  1773   00176A  6ED9               	movwf	fsr2l,c
  1774   00176C  6ADA               	clrf	fsr2h,c
  1775   00176E  30DF               	rrcf	223,w,c
  1776   001770  32E8               	rrcf	wreg,f,c
  1777   001772  32E8               	rrcf	wreg,f,c
  1778   001774  0B07               	andlw	7
  1779   001776  6E6E               	movwf	??_gpio_pin_direction_intialize^0,c
  1780   001778  0E01               	movlw	1
  1781   00177A  6E6F               	movwf	(??_gpio_pin_direction_intialize+1)^0,c
  1782   00177C  2A6E               	incf	??_gpio_pin_direction_intialize^0,f,c
  1783   00177E  EFC3  F00B         	goto	u3694
  1784   001782                     u3695:
  1785   001782  90D8               	bcf	status,0,c
  1786   001784  366F               	rlcf	(??_gpio_pin_direction_intialize+1)^0,f,c
  1787   001786                     u3694:
  1788   001786  2E6E               	decfsz	??_gpio_pin_direction_intialize^0,f,c
  1789   001788  EFC1  F00B         	goto	u3695
  1790   00178C  506D               	movf	gpio_pin_direction_intialize@__pin_t^0,w,c
  1791   00178E  6ED9               	movwf	fsr2l,c
  1792   001790  6ADA               	clrf	fsr2h,c
  1793   001792  50DF               	movf	223,w,c
  1794   001794  0B07               	andlw	7
  1795   001796  0D02               	mullw	2
  1796   001798  50F3               	movf	243,w,c
  1797   00179A  0F57               	addlw	low _tris_registers
  1798   00179C  6ED9               	movwf	fsr2l,c
  1799   00179E  6ADA               	clrf	fsr2h,c
  1800   0017A0  CFDE F070          	movff	postinc2,??_gpio_pin_direction_intialize+2
  1801   0017A4  CFDD F071          	movff	postdec2,??_gpio_pin_direction_intialize+3
  1802   0017A8  C070  FFD9         	movff	??_gpio_pin_direction_intialize+2,fsr2l
  1803   0017AC  C071  FFDA         	movff	??_gpio_pin_direction_intialize+3,fsr2h
  1804   0017B0  506F               	movf	(??_gpio_pin_direction_intialize+1)^0,w,c
  1805   0017B2  12DF               	iorwf	indf2,f,c
  1806                           
  1807                           ;MCAL_Layer/GPIO/hal_gpio.c: 37:             break;
  1808   0017B4  EFFC  F00B         	goto	l5229
  1809   0017B8                     l5227:
  1810   0017B8  506D               	movf	gpio_pin_direction_intialize@__pin_t^0,w,c
  1811   0017BA  6ED9               	movwf	fsr2l,c
  1812   0017BC  6ADA               	clrf	fsr2h,c
  1813   0017BE  BCDF               	btfsc	indf2,6,c
  1814   0017C0  EFE4  F00B         	goto	u3701
  1815   0017C4  EFE7  F00B         	goto	u3700
  1816   0017C8                     u3701:
  1817   0017C8  0E01               	movlw	1
  1818   0017CA  EFE8  F00B         	goto	u3710
  1819   0017CE                     u3700:
  1820   0017CE  0E00               	movlw	0
  1821   0017D0                     u3710:
  1822   0017D0  6E6E               	movwf	??_gpio_pin_direction_intialize^0,c
  1823   0017D2  6A6F               	clrf	(??_gpio_pin_direction_intialize+1)^0,c
  1824                           
  1825                           ; Switch on 2 bytes has been partitioned into a top level switch of size 1, and 1 sub-sw
      +                          itches
  1826                           ; Switch size 1, requested type "simple"
  1827                           ; Number of cases is 1, Range of values is 0 to 0
  1828                           ; switch strategies available:
  1829                           ; Name         Instructions Cycles
  1830                           ; simple_byte            4     3 (average)
  1831                           ;	Chosen strategy is simple_byte
  1832   0017D4  506F               	movf	(??_gpio_pin_direction_intialize+1)^0,w,c
  1833   0017D6  0A00               	xorlw	0	; case 0
  1834   0017D8  B4D8               	btfsc	status,2,c
  1835   0017DA  EFF1  F00B         	goto	l6523
  1836   0017DE  EF85  F00B         	goto	l5219
  1837   0017E2                     l6523:
  1838                           
  1839                           ; Switch size 1, requested type "simple"
  1840                           ; Number of cases is 2, Range of values is 0 to 1
  1841                           ; switch strategies available:
  1842                           ; Name         Instructions Cycles
  1843                           ; simple_byte            7     4 (average)
  1844                           ;	Chosen strategy is simple_byte
  1845   0017E2  506E               	movf	??_gpio_pin_direction_intialize^0,w,c
  1846   0017E4  0A00               	xorlw	0	; case 0
  1847   0017E6  B4D8               	btfsc	status,2,c
  1848   0017E8  EF89  F00B         	goto	l5221
  1849   0017EC  0A01               	xorlw	1	; case 1
  1850   0017EE  B4D8               	btfsc	status,2,c
  1851   0017F0  EFB4  F00B         	goto	l5223
  1852   0017F4  EF85  F00B         	goto	l5219
  1853   0017F8                     l5229:
  1854                           
  1855                           ;MCAL_Layer/GPIO/hal_gpio.c: 44:     return ret;
  1856   0017F8  5073               	movf	gpio_pin_direction_intialize@ret^0,w,c
  1857   0017FA  0012               	return		;funcret
  1858   0017FC                     __end_of_gpio_pin_direction_intialize:
  1859                           	callstack 0
  1860                           
  1861 ;; *************** function _configure_mode *****************
  1862 ;; Defined at:
  1863 ;;		line 197 in file "MCAL_Layer/CPP1/hal_ccp.c"
  1864 ;; Parameters:    Size  Location     Type
  1865 ;;  _ccp            1    3[COMRAM] PTR const struct .
  1866 ;;		 -> ccp_obj(11), 
  1867 ;; Auto vars:     Size  Location     Type
  1868 ;;		None
  1869 ;; Return value:  Size  Location     Type
  1870 ;;                  1    wreg      void 
  1871 ;; Registers used:
  1872 ;;		wreg, fsr2l, fsr2h, status,2, status,0, cstack
  1873 ;; Tracked objects:
  1874 ;;		On entry : 0/0
  1875 ;;		On exit  : 0/0
  1876 ;;		Unchanged: 0/0
  1877 ;; Data sizes:     COMRAM   BANK0   BANK1   BANK2   BANK3   BANK4   BANK5   BANK6   BANK7   BANK8   BANK9  BANK10  BANK1
      +1  BANK12  BANK13  BANK14  BANK15
  1878 ;;      Params:         1       0       0       0       0       0       0       0       0       0       0       0       
      +0       0       0       0       0
  1879 ;;      Locals:         0       0       0       0       0       0       0       0       0       0       0       0       
      +0       0       0       0       0
  1880 ;;      Temps:          2       0       0       0       0       0       0       0       0       0       0       0       
      +0       0       0       0       0
  1881 ;;      Totals:         3       0       0       0       0       0       0       0       0       0       0       0       
      +0       0       0       0       0
  1882 ;;Total ram usage:        3 bytes
  1883 ;; Hardware stack levels used: 1
  1884 ;; Hardware stack levels required when called: 3
  1885 ;; This function calls:
  1886 ;;		_selected_timer
  1887 ;; This function is called by:
  1888 ;;		_CCP_INIt
  1889 ;; This function uses a non-reentrant model
  1890 ;;
  1891                           
  1892                           	psect	text11
  1893   001418                     __ptext11:
  1894                           	callstack 0
  1895   001418                     _configure_mode:
  1896                           	callstack 25
  1897   001418                     
  1898                           ;MCAL_Layer/CPP1/hal_ccp.c: 198:         if(CCP1_INST ==_ccp->ccp_inst ){
  1899   001418  506F               	movf	configure_mode@_ccp^0,w,c
  1900   00141A  6ED9               	movwf	fsr2l,c
  1901   00141C  6ADA               	clrf	fsr2h,c
  1902   00141E  0E06               	movlw	6
  1903   001420  26D9               	addwf	fsr2l,f,c
  1904   001422  50DF               	movf	indf2,w,c
  1905   001424  A4D8               	btfss	status,2,c
  1906   001426  EF17  F00A         	goto	u3771
  1907   00142A  EF19  F00A         	goto	u3770
  1908   00142E                     u3771:
  1909   00142E  EFBF  F00A         	goto	l5299
  1910   001432                     u3770:
  1911   001432                     
  1912                           ;MCAL_Layer/CPP1/hal_ccp.c: 200:     if(0x00 == _ccp->CCP_Mode){
  1913   001432  506F               	movf	configure_mode@_ccp^0,w,c
  1914   001434  6ED9               	movwf	fsr2l,c
  1915   001436  6ADA               	clrf	fsr2h,c
  1916   001438  0E07               	movlw	7
  1917   00143A  26D9               	addwf	fsr2l,f,c
  1918   00143C  50DF               	movf	indf2,w,c
  1919   00143E  A4D8               	btfss	status,2,c
  1920   001440  EF24  F00A         	goto	u3781
  1921   001444  EF26  F00A         	goto	u3780
  1922   001448                     u3781:
  1923   001448  EF73  F00A         	goto	l5281
  1924   00144C                     u3780:
  1925   00144C  EF46  F00A         	goto	l5277
  1926   001450                     l5267:
  1927                           
  1928                           ;MCAL_Layer/CPP1/hal_ccp.c: 204:                     (CCP1CONbits.CCP1M =(uint8)(0x02));
  1929   001450  50BD               	movf	189,w,c	;volatile
  1930   001452  0BF0               	andlw	-16
  1931   001454  0902               	iorlw	2
  1932   001456  6EBD               	movwf	189,c	;volatile
  1933                           
  1934                           ;MCAL_Layer/CPP1/hal_ccp.c: 205:                     break ;
  1935   001458  EF6D  F00A         	goto	l5279
  1936   00145C                     l5269:
  1937                           
  1938                           ;MCAL_Layer/CPP1/hal_ccp.c: 207:                         (CCP1CONbits.CCP1M =(uint8)(0x0
      +                          8));
  1939   00145C  50BD               	movf	189,w,c	;volatile
  1940   00145E  0BF0               	andlw	-16
  1941   001460  0908               	iorlw	8
  1942   001462  6EBD               	movwf	189,c	;volatile
  1943                           
  1944                           ;MCAL_Layer/CPP1/hal_ccp.c: 208:                     break ;
  1945   001464  EF6D  F00A         	goto	l5279
  1946   001468                     l5271:
  1947                           
  1948                           ;MCAL_Layer/CPP1/hal_ccp.c: 210:                         (CCP1CONbits.CCP1M =(uint8)(0x0
      +                          9));
  1949   001468  50BD               	movf	189,w,c	;volatile
  1950   00146A  0BF0               	andlw	-16
  1951   00146C  0909               	iorlw	9
  1952   00146E  6EBD               	movwf	189,c	;volatile
  1953                           
  1954                           ;MCAL_Layer/CPP1/hal_ccp.c: 211:                     break ;
  1955   001470  EF6D  F00A         	goto	l5279
  1956   001474                     l5273:
  1957                           
  1958                           ;MCAL_Layer/CPP1/hal_ccp.c: 213:                         (CCP1CONbits.CCP1M =(uint8)(0x0
      +                          A));
  1959   001474  50BD               	movf	189,w,c	;volatile
  1960   001476  0BF0               	andlw	-16
  1961   001478  090A               	iorlw	10
  1962   00147A  6EBD               	movwf	189,c	;volatile
  1963                           
  1964                           ;MCAL_Layer/CPP1/hal_ccp.c: 214:                     break ;
  1965   00147C  EF6D  F00A         	goto	l5279
  1966   001480                     l5275:
  1967                           
  1968                           ;MCAL_Layer/CPP1/hal_ccp.c: 216:                          (CCP1CONbits.CCP1M =(uint8)(0x
      +                          0B));
  1969   001480  50BD               	movf	189,w,c	;volatile
  1970   001482  0BF0               	andlw	-16
  1971   001484  090B               	iorlw	11
  1972   001486  6EBD               	movwf	189,c	;volatile
  1973                           
  1974                           ;MCAL_Layer/CPP1/hal_ccp.c: 217:                     break ;
  1975   001488  EF6D  F00A         	goto	l5279
  1976   00148C                     l5277:
  1977   00148C  506F               	movf	configure_mode@_ccp^0,w,c
  1978   00148E  6ED9               	movwf	fsr2l,c
  1979   001490  6ADA               	clrf	fsr2h,c
  1980   001492  0E08               	movlw	8
  1981   001494  26D9               	addwf	fsr2l,f,c
  1982   001496  50DF               	movf	223,w,c
  1983   001498  0B0F               	andlw	15
  1984   00149A  6E70               	movwf	??_configure_mode^0,c
  1985   00149C  6A71               	clrf	(??_configure_mode+1)^0,c
  1986                           
  1987                           ; Switch on 2 bytes has been partitioned into a top level switch of size 1, and 1 sub-sw
      +                          itches
  1988                           ; Switch size 1, requested type "simple"
  1989                           ; Number of cases is 1, Range of values is 0 to 0
  1990                           ; switch strategies available:
  1991                           ; Name         Instructions Cycles
  1992                           ; simple_byte            4     3 (average)
  1993                           ;	Chosen strategy is simple_byte
  1994   00149E  5071               	movf	(??_configure_mode+1)^0,w,c
  1995   0014A0  0A00               	xorlw	0	; case 0
  1996   0014A2  B4D8               	btfsc	status,2,c
  1997   0014A4  EF56  F00A         	goto	l6525
  1998   0014A8  EF6D  F00A         	goto	l5279
  1999   0014AC                     l6525:
  2000                           
  2001                           ; Switch size 1, requested type "simple"
  2002                           ; Number of cases is 5, Range of values is 2 to 11
  2003                           ; switch strategies available:
  2004                           ; Name         Instructions Cycles
  2005                           ; simple_byte           16     9 (average)
  2006                           ;	Chosen strategy is simple_byte
  2007   0014AC  5070               	movf	??_configure_mode^0,w,c
  2008   0014AE  0A02               	xorlw	2	; case 2
  2009   0014B0  B4D8               	btfsc	status,2,c
  2010   0014B2  EF28  F00A         	goto	l5267
  2011   0014B6  0A0A               	xorlw	10	; case 8
  2012   0014B8  B4D8               	btfsc	status,2,c
  2013   0014BA  EF2E  F00A         	goto	l5269
  2014   0014BE  0A01               	xorlw	1	; case 9
  2015   0014C0  B4D8               	btfsc	status,2,c
  2016   0014C2  EF34  F00A         	goto	l5271
  2017   0014C6  0A03               	xorlw	3	; case 10
  2018   0014C8  B4D8               	btfsc	status,2,c
  2019   0014CA  EF3A  F00A         	goto	l5273
  2020   0014CE  0A01               	xorlw	1	; case 11
  2021   0014D0  B4D8               	btfsc	status,2,c
  2022   0014D2  EF40  F00A         	goto	l5275
  2023   0014D6  EF6D  F00A         	goto	l5279
  2024   0014DA                     l5279:
  2025                           
  2026                           ;MCAL_Layer/CPP1/hal_ccp.c: 221:             selected_timer(_ccp);
  2027   0014DA  C06F  F06D         	movff	configure_mode@_ccp,selected_timer@_ccp
  2028   0014DE  EC48  F00D         	call	_selected_timer	;wreg free
  2029                           
  2030                           ;MCAL_Layer/CPP1/hal_ccp.c: 222:         }else if(0x01 == _ccp->CCP_Mode){
  2031   0014E2  EF6A  F00B         	goto	l586
  2032   0014E6                     l5281:
  2033   0014E6  506F               	movf	configure_mode@_ccp^0,w,c
  2034   0014E8  6ED9               	movwf	fsr2l,c
  2035   0014EA  6ADA               	clrf	fsr2h,c
  2036   0014EC  0E07               	movlw	7
  2037   0014EE  26D9               	addwf	fsr2l,f,c
  2038   0014F0  04DE               	decf	postinc2,w,c
  2039   0014F2  A4D8               	btfss	status,2,c
  2040   0014F4  EF7E  F00A         	goto	u3791
  2041   0014F8  EF80  F00A         	goto	u3790
  2042   0014FC                     u3791:
  2043   0014FC  EFBD  F00A         	goto	l563
  2044   001500                     u3790:
  2045   001500  EF9A  F00A         	goto	l5293
  2046   001504                     l5285:
  2047                           
  2048                           ;MCAL_Layer/CPP1/hal_ccp.c: 226:                     (CCP1CONbits.CCP1M =(uint8)(0x04));
  2049   001504  50BD               	movf	189,w,c	;volatile
  2050   001506  0BF0               	andlw	-16
  2051   001508  0904               	iorlw	4
  2052   00150A  6EBD               	movwf	189,c	;volatile
  2053                           
  2054                           ;MCAL_Layer/CPP1/hal_ccp.c: 227:                     break ;
  2055   00150C  EF6D  F00A         	goto	l5279
  2056   001510                     l5287:
  2057                           
  2058                           ;MCAL_Layer/CPP1/hal_ccp.c: 229:                         (CCP1CONbits.CCP1M =(uint8)(0x0
      +                          5));
  2059   001510  50BD               	movf	189,w,c	;volatile
  2060   001512  0BF0               	andlw	-16
  2061   001514  0905               	iorlw	5
  2062   001516  6EBD               	movwf	189,c	;volatile
  2063                           
  2064                           ;MCAL_Layer/CPP1/hal_ccp.c: 230:                     break ;
  2065   001518  EF6D  F00A         	goto	l5279
  2066   00151C                     l5289:
  2067                           
  2068                           ;MCAL_Layer/CPP1/hal_ccp.c: 232:                         (CCP1CONbits.CCP1M =(uint8)(0x0
      +                          6));
  2069   00151C  50BD               	movf	189,w,c	;volatile
  2070   00151E  0BF0               	andlw	-16
  2071   001520  0906               	iorlw	6
  2072   001522  6EBD               	movwf	189,c	;volatile
  2073                           
  2074                           ;MCAL_Layer/CPP1/hal_ccp.c: 233:                     break ;
  2075   001524  EF6D  F00A         	goto	l5279
  2076   001528                     l5291:
  2077                           
  2078                           ;MCAL_Layer/CPP1/hal_ccp.c: 235:                         (CCP1CONbits.CCP1M =(uint8)(0x0
      +                          7));
  2079   001528  50BD               	movf	189,w,c	;volatile
  2080   00152A  0BF0               	andlw	-16
  2081   00152C  0907               	iorlw	7
  2082   00152E  6EBD               	movwf	189,c	;volatile
  2083                           
  2084                           ;MCAL_Layer/CPP1/hal_ccp.c: 236:                     break ;
  2085   001530  EF6D  F00A         	goto	l5279
  2086   001534                     l5293:
  2087   001534  506F               	movf	configure_mode@_ccp^0,w,c
  2088   001536  6ED9               	movwf	fsr2l,c
  2089   001538  6ADA               	clrf	fsr2h,c
  2090   00153A  0E08               	movlw	8
  2091   00153C  26D9               	addwf	fsr2l,f,c
  2092   00153E  50DF               	movf	223,w,c
  2093   001540  0B0F               	andlw	15
  2094   001542  6E70               	movwf	??_configure_mode^0,c
  2095   001544  6A71               	clrf	(??_configure_mode+1)^0,c
  2096                           
  2097                           ; Switch on 2 bytes has been partitioned into a top level switch of size 1, and 1 sub-sw
      +                          itches
  2098                           ; Switch size 1, requested type "simple"
  2099                           ; Number of cases is 1, Range of values is 0 to 0
  2100                           ; switch strategies available:
  2101                           ; Name         Instructions Cycles
  2102                           ; simple_byte            4     3 (average)
  2103                           ;	Chosen strategy is simple_byte
  2104   001546  5071               	movf	(??_configure_mode+1)^0,w,c
  2105   001548  0A00               	xorlw	0	; case 0
  2106   00154A  B4D8               	btfsc	status,2,c
  2107   00154C  EFAA  F00A         	goto	l6527
  2108   001550  EF6D  F00A         	goto	l5279
  2109   001554                     l6527:
  2110                           
  2111                           ; Switch size 1, requested type "simple"
  2112                           ; Number of cases is 4, Range of values is 4 to 7
  2113                           ; switch strategies available:
  2114                           ; Name         Instructions Cycles
  2115                           ; simple_byte           13     7 (average)
  2116                           ;	Chosen strategy is simple_byte
  2117   001554  5070               	movf	??_configure_mode^0,w,c
  2118   001556  0A04               	xorlw	4	; case 4
  2119   001558  B4D8               	btfsc	status,2,c
  2120   00155A  EF82  F00A         	goto	l5285
  2121   00155E  0A01               	xorlw	1	; case 5
  2122   001560  B4D8               	btfsc	status,2,c
  2123   001562  EF88  F00A         	goto	l5287
  2124   001566  0A03               	xorlw	3	; case 6
  2125   001568  B4D8               	btfsc	status,2,c
  2126   00156A  EF8E  F00A         	goto	l5289
  2127   00156E  0A01               	xorlw	1	; case 7
  2128   001570  B4D8               	btfsc	status,2,c
  2129   001572  EF94  F00A         	goto	l5291
  2130   001576  EF6D  F00A         	goto	l5279
  2131   00157A                     l563:
  2132   00157A  EF6A  F00B         	goto	l586
  2133   00157E                     l5299:
  2134   00157E  506F               	movf	configure_mode@_ccp^0,w,c
  2135   001580  6ED9               	movwf	fsr2l,c
  2136   001582  6ADA               	clrf	fsr2h,c
  2137   001584  0E06               	movlw	6
  2138   001586  26D9               	addwf	fsr2l,f,c
  2139   001588  04DE               	decf	postinc2,w,c
  2140   00158A  A4D8               	btfss	status,2,c
  2141   00158C  EFCA  F00A         	goto	u3801
  2142   001590  EFCC  F00A         	goto	u3800
  2143   001594                     u3801:
  2144   001594  EF6A  F00B         	goto	l586
  2145   001598                     u3800:
  2146   001598                     
  2147                           ;MCAL_Layer/CPP1/hal_ccp.c: 256:          if(0x00 == _ccp->CCP_Mode){
  2148   001598  506F               	movf	configure_mode@_ccp^0,w,c
  2149   00159A  6ED9               	movwf	fsr2l,c
  2150   00159C  6ADA               	clrf	fsr2h,c
  2151   00159E  0E07               	movlw	7
  2152   0015A0  26D9               	addwf	fsr2l,f,c
  2153   0015A2  50DF               	movf	indf2,w,c
  2154   0015A4  A4D8               	btfss	status,2,c
  2155   0015A6  EFD7  F00A         	goto	u3811
  2156   0015AA  EFD9  F00A         	goto	u3810
  2157   0015AE                     u3811:
  2158   0015AE  EF20  F00B         	goto	l5319
  2159   0015B2                     u3810:
  2160   0015B2  EFF9  F00A         	goto	l5315
  2161   0015B6                     l5305:
  2162                           
  2163                           ;MCAL_Layer/CPP1/hal_ccp.c: 260:                     (CCP2CONbits.CCP2M =(uint8)(0x02));
  2164   0015B6  50BA               	movf	186,w,c	;volatile
  2165   0015B8  0BF0               	andlw	-16
  2166   0015BA  0902               	iorlw	2
  2167   0015BC  6EBA               	movwf	186,c	;volatile
  2168                           
  2169                           ;MCAL_Layer/CPP1/hal_ccp.c: 261:                     break ;
  2170   0015BE  EF6D  F00A         	goto	l5279
  2171   0015C2                     l5307:
  2172                           
  2173                           ;MCAL_Layer/CPP1/hal_ccp.c: 263:                         (CCP2CONbits.CCP2M =(uint8)(0x0
      +                          8));
  2174   0015C2  50BA               	movf	186,w,c	;volatile
  2175   0015C4  0BF0               	andlw	-16
  2176   0015C6  0908               	iorlw	8
  2177   0015C8  6EBA               	movwf	186,c	;volatile
  2178                           
  2179                           ;MCAL_Layer/CPP1/hal_ccp.c: 264:                     break ;
  2180   0015CA  EF6D  F00A         	goto	l5279
  2181   0015CE                     l5309:
  2182                           
  2183                           ;MCAL_Layer/CPP1/hal_ccp.c: 266:                         (CCP2CONbits.CCP2M =(uint8)(0x0
      +                          9));
  2184   0015CE  50BA               	movf	186,w,c	;volatile
  2185   0015D0  0BF0               	andlw	-16
  2186   0015D2  0909               	iorlw	9
  2187   0015D4  6EBA               	movwf	186,c	;volatile
  2188                           
  2189                           ;MCAL_Layer/CPP1/hal_ccp.c: 267:                     break ;
  2190   0015D6  EF6D  F00A         	goto	l5279
  2191   0015DA                     l5311:
  2192                           
  2193                           ;MCAL_Layer/CPP1/hal_ccp.c: 269:                         (CCP2CONbits.CCP2M =(uint8)(0x0
      +                          A));
  2194   0015DA  50BA               	movf	186,w,c	;volatile
  2195   0015DC  0BF0               	andlw	-16
  2196   0015DE  090A               	iorlw	10
  2197   0015E0  6EBA               	movwf	186,c	;volatile
  2198                           
  2199                           ;MCAL_Layer/CPP1/hal_ccp.c: 270:                     break ;
  2200   0015E2  EF6D  F00A         	goto	l5279
  2201   0015E6                     l5313:
  2202                           
  2203                           ;MCAL_Layer/CPP1/hal_ccp.c: 272:                          (CCP2CONbits.CCP2M =(uint8)(0x
      +                          0B));
  2204   0015E6  50BA               	movf	186,w,c	;volatile
  2205   0015E8  0BF0               	andlw	-16
  2206   0015EA  090B               	iorlw	11
  2207   0015EC  6EBA               	movwf	186,c	;volatile
  2208                           
  2209                           ;MCAL_Layer/CPP1/hal_ccp.c: 273:                     break ;
  2210   0015EE  EF6D  F00A         	goto	l5279
  2211   0015F2                     l5315:
  2212   0015F2  506F               	movf	configure_mode@_ccp^0,w,c
  2213   0015F4  6ED9               	movwf	fsr2l,c
  2214   0015F6  6ADA               	clrf	fsr2h,c
  2215   0015F8  0E08               	movlw	8
  2216   0015FA  26D9               	addwf	fsr2l,f,c
  2217   0015FC  50DF               	movf	223,w,c
  2218   0015FE  0B0F               	andlw	15
  2219   001600  6E70               	movwf	??_configure_mode^0,c
  2220   001602  6A71               	clrf	(??_configure_mode+1)^0,c
  2221                           
  2222                           ; Switch on 2 bytes has been partitioned into a top level switch of size 1, and 1 sub-sw
      +                          itches
  2223                           ; Switch size 1, requested type "simple"
  2224                           ; Number of cases is 1, Range of values is 0 to 0
  2225                           ; switch strategies available:
  2226                           ; Name         Instructions Cycles
  2227                           ; simple_byte            4     3 (average)
  2228                           ;	Chosen strategy is simple_byte
  2229   001604  5071               	movf	(??_configure_mode+1)^0,w,c
  2230   001606  0A00               	xorlw	0	; case 0
  2231   001608  B4D8               	btfsc	status,2,c
  2232   00160A  EF09  F00B         	goto	l6529
  2233   00160E  EF6D  F00A         	goto	l5279
  2234   001612                     l6529:
  2235                           
  2236                           ; Switch size 1, requested type "simple"
  2237                           ; Number of cases is 5, Range of values is 2 to 11
  2238                           ; switch strategies available:
  2239                           ; Name         Instructions Cycles
  2240                           ; simple_byte           16     9 (average)
  2241                           ;	Chosen strategy is simple_byte
  2242   001612  5070               	movf	??_configure_mode^0,w,c
  2243   001614  0A02               	xorlw	2	; case 2
  2244   001616  B4D8               	btfsc	status,2,c
  2245   001618  EFDB  F00A         	goto	l5305
  2246   00161C  0A0A               	xorlw	10	; case 8
  2247   00161E  B4D8               	btfsc	status,2,c
  2248   001620  EFE1  F00A         	goto	l5307
  2249   001624  0A01               	xorlw	1	; case 9
  2250   001626  B4D8               	btfsc	status,2,c
  2251   001628  EFE7  F00A         	goto	l5309
  2252   00162C  0A03               	xorlw	3	; case 10
  2253   00162E  B4D8               	btfsc	status,2,c
  2254   001630  EFED  F00A         	goto	l5311
  2255   001634  0A01               	xorlw	1	; case 11
  2256   001636  B4D8               	btfsc	status,2,c
  2257   001638  EFF3  F00A         	goto	l5313
  2258   00163C  EF6D  F00A         	goto	l5279
  2259   001640                     l5319:
  2260   001640  506F               	movf	configure_mode@_ccp^0,w,c
  2261   001642  6ED9               	movwf	fsr2l,c
  2262   001644  6ADA               	clrf	fsr2h,c
  2263   001646  0E07               	movlw	7
  2264   001648  26D9               	addwf	fsr2l,f,c
  2265   00164A  04DE               	decf	postinc2,w,c
  2266   00164C  A4D8               	btfss	status,2,c
  2267   00164E  EF2B  F00B         	goto	u3821
  2268   001652  EF2D  F00B         	goto	u3820
  2269   001656                     u3821:
  2270   001656  EFBD  F00A         	goto	l563
  2271   00165A                     u3820:
  2272   00165A  EF47  F00B         	goto	l5331
  2273   00165E                     l5323:
  2274                           
  2275                           ;MCAL_Layer/CPP1/hal_ccp.c: 282:                     (CCP2CONbits.CCP2M =(uint8)(0x04));
  2276   00165E  50BA               	movf	186,w,c	;volatile
  2277   001660  0BF0               	andlw	-16
  2278   001662  0904               	iorlw	4
  2279   001664  6EBA               	movwf	186,c	;volatile
  2280                           
  2281                           ;MCAL_Layer/CPP1/hal_ccp.c: 283:                     break ;
  2282   001666  EF6D  F00A         	goto	l5279
  2283   00166A                     l5325:
  2284                           
  2285                           ;MCAL_Layer/CPP1/hal_ccp.c: 285:                         (CCP2CONbits.CCP2M =(uint8)(0x0
      +                          5));
  2286   00166A  50BA               	movf	186,w,c	;volatile
  2287   00166C  0BF0               	andlw	-16
  2288   00166E  0905               	iorlw	5
  2289   001670  6EBA               	movwf	186,c	;volatile
  2290                           
  2291                           ;MCAL_Layer/CPP1/hal_ccp.c: 286:                     break ;
  2292   001672  EF6D  F00A         	goto	l5279
  2293   001676                     l5327:
  2294                           
  2295                           ;MCAL_Layer/CPP1/hal_ccp.c: 288:                         (CCP2CONbits.CCP2M =(uint8)(0x0
      +                          6));
  2296   001676  50BA               	movf	186,w,c	;volatile
  2297   001678  0BF0               	andlw	-16
  2298   00167A  0906               	iorlw	6
  2299   00167C  6EBA               	movwf	186,c	;volatile
  2300                           
  2301                           ;MCAL_Layer/CPP1/hal_ccp.c: 289:                     break ;
  2302   00167E  EF6D  F00A         	goto	l5279
  2303   001682                     l5329:
  2304                           
  2305                           ;MCAL_Layer/CPP1/hal_ccp.c: 291:                         (CCP2CONbits.CCP2M =(uint8)(0x0
      +                          7));
  2306   001682  50BA               	movf	186,w,c	;volatile
  2307   001684  0BF0               	andlw	-16
  2308   001686  0907               	iorlw	7
  2309   001688  6EBA               	movwf	186,c	;volatile
  2310                           
  2311                           ;MCAL_Layer/CPP1/hal_ccp.c: 292:                     break ;
  2312   00168A  EF6D  F00A         	goto	l5279
  2313   00168E                     l5331:
  2314   00168E  506F               	movf	configure_mode@_ccp^0,w,c
  2315   001690  6ED9               	movwf	fsr2l,c
  2316   001692  6ADA               	clrf	fsr2h,c
  2317   001694  0E08               	movlw	8
  2318   001696  26D9               	addwf	fsr2l,f,c
  2319   001698  50DF               	movf	223,w,c
  2320   00169A  0B0F               	andlw	15
  2321   00169C  6E70               	movwf	??_configure_mode^0,c
  2322   00169E  6A71               	clrf	(??_configure_mode+1)^0,c
  2323                           
  2324                           ; Switch on 2 bytes has been partitioned into a top level switch of size 1, and 1 sub-sw
      +                          itches
  2325                           ; Switch size 1, requested type "simple"
  2326                           ; Number of cases is 1, Range of values is 0 to 0
  2327                           ; switch strategies available:
  2328                           ; Name         Instructions Cycles
  2329                           ; simple_byte            4     3 (average)
  2330                           ;	Chosen strategy is simple_byte
  2331   0016A0  5071               	movf	(??_configure_mode+1)^0,w,c
  2332   0016A2  0A00               	xorlw	0	; case 0
  2333   0016A4  B4D8               	btfsc	status,2,c
  2334   0016A6  EF57  F00B         	goto	l6531
  2335   0016AA  EF6D  F00A         	goto	l5279
  2336   0016AE                     l6531:
  2337                           
  2338                           ; Switch size 1, requested type "simple"
  2339                           ; Number of cases is 4, Range of values is 4 to 7
  2340                           ; switch strategies available:
  2341                           ; Name         Instructions Cycles
  2342                           ; simple_byte           13     7 (average)
  2343                           ;	Chosen strategy is simple_byte
  2344   0016AE  5070               	movf	??_configure_mode^0,w,c
  2345   0016B0  0A04               	xorlw	4	; case 4
  2346   0016B2  B4D8               	btfsc	status,2,c
  2347   0016B4  EF2F  F00B         	goto	l5323
  2348   0016B8  0A01               	xorlw	1	; case 5
  2349   0016BA  B4D8               	btfsc	status,2,c
  2350   0016BC  EF35  F00B         	goto	l5325
  2351   0016C0  0A03               	xorlw	3	; case 6
  2352   0016C2  B4D8               	btfsc	status,2,c
  2353   0016C4  EF3B  F00B         	goto	l5327
  2354   0016C8  0A01               	xorlw	1	; case 7
  2355   0016CA  B4D8               	btfsc	status,2,c
  2356   0016CC  EF41  F00B         	goto	l5329
  2357   0016D0  EF6D  F00A         	goto	l5279
  2358   0016D4                     l586:
  2359   0016D4  0012               	return		;funcret
  2360   0016D6                     __end_of_configure_mode:
  2361                           	callstack 0
  2362                           
  2363 ;; *************** function _selected_timer *****************
  2364 ;; Defined at:
  2365 ;;		line 367 in file "MCAL_Layer/CPP1/hal_ccp.c"
  2366 ;; Parameters:    Size  Location     Type
  2367 ;;  _ccp            1    1[COMRAM] PTR const struct .
  2368 ;;		 -> ccp_obj(11), 
  2369 ;; Auto vars:     Size  Location     Type
  2370 ;;		None
  2371 ;; Return value:  Size  Location     Type
  2372 ;;                  1    wreg      void 
  2373 ;; Registers used:
  2374 ;;		wreg, fsr2l, fsr2h, status,2, status,0
  2375 ;; Tracked objects:
  2376 ;;		On entry : 0/0
  2377 ;;		On exit  : 0/0
  2378 ;;		Unchanged: 0/0
  2379 ;; Data sizes:     COMRAM   BANK0   BANK1   BANK2   BANK3   BANK4   BANK5   BANK6   BANK7   BANK8   BANK9  BANK10  BANK1
      +1  BANK12  BANK13  BANK14  BANK15
  2380 ;;      Params:         1       0       0       0       0       0       0       0       0       0       0       0       
      +0       0       0       0       0
  2381 ;;      Locals:         0       0       0       0       0       0       0       0       0       0       0       0       
      +0       0       0       0       0
  2382 ;;      Temps:          1       0       0       0       0       0       0       0       0       0       0       0       
      +0       0       0       0       0
  2383 ;;      Totals:         2       0       0       0       0       0       0       0       0       0       0       0       
      +0       0       0       0       0
  2384 ;;Total ram usage:        2 bytes
  2385 ;; Hardware stack levels used: 1
  2386 ;; Hardware stack levels required when called: 2
  2387 ;; This function calls:
  2388 ;;		Nothing
  2389 ;; This function is called by:
  2390 ;;		_configure_mode
  2391 ;; This function uses a non-reentrant model
  2392 ;;
  2393                           
  2394                           	psect	text12
  2395   001A90                     __ptext12:
  2396                           	callstack 0
  2397   001A90                     _selected_timer:
  2398                           	callstack 25
  2399   001A90                     
  2400                           ;MCAL_Layer/CPP1/hal_ccp.c: 368:     if(TIMER1_FOR_CCP1_CCP2 == _ccp->tmr){
  2401   001A90  506D               	movf	selected_timer@_ccp^0,w,c
  2402   001A92  6ED9               	movwf	fsr2l,c
  2403   001A94  6ADA               	clrf	fsr2h,c
  2404   001A96  0E09               	movlw	9
  2405   001A98  26D9               	addwf	fsr2l,f,c
  2406   001A9A  50DF               	movf	indf2,w,c
  2407   001A9C  A4D8               	btfss	status,2,c
  2408   001A9E  EF53  F00D         	goto	u3721
  2409   001AA2  EF55  F00D         	goto	u3720
  2410   001AA6                     u3721:
  2411   001AA6  EF59  F00D         	goto	l5241
  2412   001AAA                     u3720:
  2413   001AAA                     
  2414                           ;MCAL_Layer/CPP1/hal_ccp.c: 369:   T3CONbits.T3CCP1 = 0 ;
  2415   001AAA  96B1               	bcf	177,3,c	;volatile
  2416                           
  2417                           ;MCAL_Layer/CPP1/hal_ccp.c: 370:     T3CONbits.T3CCP2 = 0 ;
  2418   001AAC  9CB1               	bcf	177,6,c	;volatile
  2419                           
  2420                           ;MCAL_Layer/CPP1/hal_ccp.c: 371:     }else if(TIMER1_FOR_CCP1_TIMER3_FOR_CCP2== _ccp->tm
      +                          r){
  2421   001AAE  EF7A  F00D         	goto	l600
  2422   001AB2                     l5241:
  2423   001AB2  506D               	movf	selected_timer@_ccp^0,w,c
  2424   001AB4  6ED9               	movwf	fsr2l,c
  2425   001AB6  6ADA               	clrf	fsr2h,c
  2426   001AB8  0E09               	movlw	9
  2427   001ABA  26D9               	addwf	fsr2l,f,c
  2428   001ABC  04DE               	decf	postinc2,w,c
  2429   001ABE  A4D8               	btfss	status,2,c
  2430   001AC0  EF64  F00D         	goto	u3731
  2431   001AC4  EF66  F00D         	goto	u3730
  2432   001AC8                     u3731:
  2433   001AC8  EF6A  F00D         	goto	l5245
  2434   001ACC                     u3730:
  2435   001ACC                     
  2436                           ;MCAL_Layer/CPP1/hal_ccp.c: 372:          T3CONbits.T3CCP1 = 1 ;
  2437   001ACC  86B1               	bsf	177,3,c	;volatile
  2438                           
  2439                           ;MCAL_Layer/CPP1/hal_ccp.c: 373:     T3CONbits.T3CCP2 = 0 ;
  2440   001ACE  9CB1               	bcf	177,6,c	;volatile
  2441                           
  2442                           ;MCAL_Layer/CPP1/hal_ccp.c: 374:     }else if(TIMER3_FOR_CCP1_CCP2== _ccp->tmr){
  2443   001AD0  EF7A  F00D         	goto	l600
  2444   001AD4                     l5245:
  2445   001AD4  506D               	movf	selected_timer@_ccp^0,w,c
  2446   001AD6  6ED9               	movwf	fsr2l,c
  2447   001AD8  6ADA               	clrf	fsr2h,c
  2448   001ADA  0E09               	movlw	9
  2449   001ADC  26D9               	addwf	fsr2l,f,c
  2450   001ADE  0E02               	movlw	2
  2451   001AE0  18DE               	xorwf	postinc2,w,c
  2452   001AE2  A4D8               	btfss	status,2,c
  2453   001AE4  EF76  F00D         	goto	u3741
  2454   001AE8  EF78  F00D         	goto	u3740
  2455   001AEC                     u3741:
  2456   001AEC  EF7A  F00D         	goto	l600
  2457   001AF0                     u3740:
  2458   001AF0                     
  2459                           ;MCAL_Layer/CPP1/hal_ccp.c: 375:        T3CONbits.T3CCP1 = 0 ;
  2460   001AF0  96B1               	bcf	177,3,c	;volatile
  2461                           
  2462                           ;MCAL_Layer/CPP1/hal_ccp.c: 376:     T3CONbits.T3CCP2 = 1 ;
  2463   001AF2  8CB1               	bsf	177,6,c	;volatile
  2464   001AF4                     l600:
  2465   001AF4  0012               	return		;funcret
  2466   001AF6                     __end_of_selected_timer:
  2467                           	callstack 0
  2468                           
  2469 ;; *************** function _ccp_interrupt *****************
  2470 ;; Defined at:
  2471 ;;		line 314 in file "MCAL_Layer/CPP1/hal_ccp.c"
  2472 ;; Parameters:    Size  Location     Type
  2473 ;;  _ccp            1    1[COMRAM] PTR const struct .
  2474 ;;		 -> ccp_obj(11), 
  2475 ;; Auto vars:     Size  Location     Type
  2476 ;;		None
  2477 ;; Return value:  Size  Location     Type
  2478 ;;                  1    wreg      void 
  2479 ;; Registers used:
  2480 ;;		wreg, fsr2l, fsr2h, status,2, status,0
  2481 ;; Tracked objects:
  2482 ;;		On entry : 0/0
  2483 ;;		On exit  : 0/0
  2484 ;;		Unchanged: 0/0
  2485 ;; Data sizes:     COMRAM   BANK0   BANK1   BANK2   BANK3   BANK4   BANK5   BANK6   BANK7   BANK8   BANK9  BANK10  BANK1
      +1  BANK12  BANK13  BANK14  BANK15
  2486 ;;      Params:         1       0       0       0       0       0       0       0       0       0       0       0       
      +0       0       0       0       0
  2487 ;;      Locals:         0       0       0       0       0       0       0       0       0       0       0       0       
      +0       0       0       0       0
  2488 ;;      Temps:          0       0       0       0       0       0       0       0       0       0       0       0       
      +0       0       0       0       0
  2489 ;;      Totals:         1       0       0       0       0       0       0       0       0       0       0       0       
      +0       0       0       0       0
  2490 ;;Total ram usage:        1 bytes
  2491 ;; Hardware stack levels used: 1
  2492 ;; Hardware stack levels required when called: 2
  2493 ;; This function calls:
  2494 ;;		Nothing
  2495 ;; This function is called by:
  2496 ;;		_CCP_INIt
  2497 ;; This function uses a non-reentrant model
  2498 ;;
  2499                           
  2500                           	psect	text13
  2501   001BB6                     __ptext13:
  2502                           	callstack 0
  2503   001BB6                     _ccp_interrupt:
  2504                           	callstack 26
  2505   001BB6                     
  2506                           ;MCAL_Layer/CPP1/hal_ccp.c: 315:     if(CCP1_INST== _ccp){
  2507   001BB6  506D               	movf	ccp_interrupt@_ccp^0,w,c
  2508   001BB8  A4D8               	btfss	status,2,c
  2509   001BBA  EFE1  F00D         	goto	u3831
  2510   001BBE  EFE3  F00D         	goto	u3830
  2511   001BC2                     u3831:
  2512   001BC2  EFF0  F00D         	goto	l5363
  2513   001BC6                     u3830:
  2514   001BC6                     
  2515                           ;MCAL_Layer/CPP1/hal_ccp.c: 317:         (PIE1bits.CCP1IE =1);
  2516   001BC6  849D               	bsf	157,2,c	;volatile
  2517                           
  2518                           ;MCAL_Layer/CPP1/hal_ccp.c: 318:         (PIR1bits.CCP1IF = 0 );
  2519   001BC8  949E               	bcf	158,2,c	;volatile
  2520   001BCA                     
  2521                           ;MCAL_Layer/CPP1/hal_ccp.c: 319:         CCP1_INTERRUPT_HANDLERF = _ccp->CCP1_INTERRUPT_
      +                          HANDLER ;
  2522   001BCA  506D               	movf	ccp_interrupt@_ccp^0,w,c
  2523   001BCC  6ED9               	movwf	fsr2l,c
  2524   001BCE  6ADA               	clrf	fsr2h,c
  2525   001BD0  CFDE F039          	movff	postinc2,_CCP1_INTERRUPT_HANDLERF
  2526   001BD4  CFDD F03A          	movff	postdec2,_CCP1_INTERRUPT_HANDLERF+1
  2527   001BD8                     
  2528                           ;MCAL_Layer/CPP1/hal_ccp.c: 333:         (INTCONbits.PEIE = 1);
  2529   001BD8  8CF2               	bsf	242,6,c	;volatile
  2530   001BDA                     
  2531                           ;MCAL_Layer/CPP1/hal_ccp.c: 334:         (INTCONbits.GIE = 1);
  2532   001BDA  8EF2               	bsf	242,7,c	;volatile
  2533                           
  2534                           ;MCAL_Layer/CPP1/hal_ccp.c: 340:     }else if(CCP2_INST== _ccp){
  2535   001BDC  EF05  F00E         	goto	l592
  2536   001BE0                     l5363:
  2537   001BE0  046D               	decf	ccp_interrupt@_ccp^0,w,c
  2538   001BE2  A4D8               	btfss	status,2,c
  2539   001BE4  EFF6  F00D         	goto	u3841
  2540   001BE8  EFF8  F00D         	goto	u3840
  2541   001BEC                     u3841:
  2542   001BEC  EF05  F00E         	goto	l592
  2543   001BF0                     u3840:
  2544   001BF0                     
  2545                           ;MCAL_Layer/CPP1/hal_ccp.c: 342:          (PIE2bits.CCP2IE =1);
  2546   001BF0  80A0               	bsf	160,0,c	;volatile
  2547                           
  2548                           ;MCAL_Layer/CPP1/hal_ccp.c: 343:         (PIR2bits.CCP2IF = 0 );
  2549   001BF2  90A1               	bcf	161,0,c	;volatile
  2550   001BF4                     
  2551                           ;MCAL_Layer/CPP1/hal_ccp.c: 344:         CCP2_INTERRUPT_HANDLERF = _ccp->CCP2_INTERRUPT_
      +                          HANDLER ;
  2552   001BF4  506D               	movf	ccp_interrupt@_ccp^0,w,c
  2553   001BF6  6ED9               	movwf	fsr2l,c
  2554   001BF8  6ADA               	clrf	fsr2h,c
  2555   001BFA  0E03               	movlw	3
  2556   001BFC  26D9               	addwf	fsr2l,f,c
  2557   001BFE  CFDE F037          	movff	postinc2,_CCP2_INTERRUPT_HANDLERF
  2558   001C02  CFDD F038          	movff	postdec2,_CCP2_INTERRUPT_HANDLERF+1
  2559   001C06                     
  2560                           ;MCAL_Layer/CPP1/hal_ccp.c: 358:         (INTCONbits.PEIE = 1);
  2561   001C06  8CF2               	bsf	242,6,c	;volatile
  2562   001C08                     
  2563                           ;MCAL_Layer/CPP1/hal_ccp.c: 359:         (INTCONbits.GIE = 1);
  2564   001C08  8EF2               	bsf	242,7,c	;volatile
  2565   001C0A                     l592:
  2566   001C0A  0012               	return		;funcret
  2567   001C0C                     __end_of_ccp_interrupt:
  2568                           	callstack 0
  2569                           
  2570 ;; *************** function _InterruptManager *****************
  2571 ;; Defined at:
  2572 ;;		line 104 in file "MCAL_Layer/Interrupt/mcal_interrupt_manager.c"
  2573 ;; Parameters:    Size  Location     Type
  2574 ;;		None
  2575 ;; Auto vars:     Size  Location     Type
  2576 ;;		None
  2577 ;; Return value:  Size  Location     Type
  2578 ;;                  1    wreg      void 
  2579 ;; Registers used:
  2580 ;;		wreg, status,2, status,0, cstack
  2581 ;; Tracked objects:
  2582 ;;		On entry : 0/0
  2583 ;;		On exit  : 0/0
  2584 ;;		Unchanged: 0/0
  2585 ;; Data sizes:     COMRAM   BANK0   BANK1   BANK2   BANK3   BANK4   BANK5   BANK6   BANK7   BANK8   BANK9  BANK10  BANK1
      +1  BANK12  BANK13  BANK14  BANK15
  2586 ;;      Params:         0       0       0       0       0       0       0       0       0       0       0       0       
      +0       0       0       0       0
  2587 ;;      Locals:         0       0       0       0       0       0       0       0       0       0       0       0       
      +0       0       0       0       0
  2588 ;;      Temps:          0       0       0       0       0       0       0       0       0       0       0       0       
      +0       0       0       0       0
  2589 ;;      Totals:         0       0       0       0       0       0       0       0       0       0       0       0       
      +0       0       0       0       0
  2590 ;;Total ram usage:        0 bytes
  2591 ;; Hardware stack levels used: 1
  2592 ;; Hardware stack levels required when called: 1
  2593 ;; This function calls:
  2594 ;;		_ADC_ISR
  2595 ;;		_CCP1_ISR
  2596 ;;		_CCP2_ISR
  2597 ;;		_EUSART_RX_ASY_ISR
  2598 ;;		_EUSART_TX_ASY_ISR
  2599 ;;		_I2C_BUS_COLLISION_ISR
  2600 ;;		_I2C_MODULE_TR_ISR
  2601 ;;		_INT0_ISR
  2602 ;;		_INT1_ISR
  2603 ;;		_INT2_ISR
  2604 ;;		_MSSP_Spi_ISR
  2605 ;;		_RB4_ISR
  2606 ;;		_RB5_ISR
  2607 ;;		_RB6_ISR
  2608 ;;		_RB7_ISR
  2609 ;;		_TMR0_ISR
  2610 ;;		_TMR1_ISR
  2611 ;;		_TMR2_ISR
  2612 ;;		_TMR3_ISR
  2613 ;; This function is called by:
  2614 ;;		Interrupt level 2
  2615 ;; This function uses a non-reentrant model
  2616 ;;
  2617                           
  2618                           	psect	intcode
  2619   000008                     __pintcode:
  2620                           	callstack 0
  2621   000008                     _InterruptManager:
  2622                           	callstack 25
  2623                           
  2624                           ;incstack = 0
  2625   000008  827A               	bsf	int$flags,1,c	;set compiler interrupt flag (level 2)
  2626   00000A  ED09  F008         	call	int_func,f	;refresh shadow registers
  2627                           
  2628                           	psect	intcode_body
  2629   001012                     __pintcode_body:
  2630                           	callstack 25
  2631   001012                     int_func:
  2632                           	callstack 25
  2633   001012  0006               	pop		; remove dummy address from shadow register refresh
  2634   001014                     
  2635                           ;MCAL_Layer/Interrupt/mcal_interrupt_manager.c: 106:     if((INTCONbits.INT0IE == 1) && 
      +                          (INTCONbits.INT0IF == 1)){
  2636   001014  A8F2               	btfss	242,4,c	;volatile
  2637   001016  EF0F  F008         	goto	i2u218_41
  2638   00101A  EF11  F008         	goto	i2u218_40
  2639   00101E                     i2u218_41:
  2640   00101E  EF1A  F008         	goto	i2l1184
  2641   001022                     i2u218_40:
  2642   001022  A2F2               	btfss	242,1,c	;volatile
  2643   001024  EF16  F008         	goto	i2u219_41
  2644   001028  EF18  F008         	goto	i2u219_40
  2645   00102C                     i2u219_41:
  2646   00102C  EF1A  F008         	goto	i2l1184
  2647   001030                     i2u219_40:
  2648   001030                     
  2649                           ;MCAL_Layer/Interrupt/mcal_interrupt_manager.c: 107:         INT0_ISR();
  2650   001030  ECE1  F00E         	call	_INT0_ISR	;wreg free
  2651   001034                     i2l1184:
  2652                           
  2653                           ;MCAL_Layer/Interrupt/mcal_interrupt_manager.c: 112:     if((INTCON3bits.INT1E == 1) && 
      +                          (INTCON3bits.INT1F == 1)){
  2654   001034  A6F0               	btfss	240,3,c	;volatile
  2655   001036  EF1F  F008         	goto	i2u220_41
  2656   00103A  EF21  F008         	goto	i2u220_40
  2657   00103E                     i2u220_41:
  2658   00103E  EF2A  F008         	goto	i2l1186
  2659   001042                     i2u220_40:
  2660   001042  A0F0               	btfss	240,0,c	;volatile
  2661   001044  EF26  F008         	goto	i2u221_41
  2662   001048  EF28  F008         	goto	i2u221_40
  2663   00104C                     i2u221_41:
  2664   00104C  EF2A  F008         	goto	i2l1186
  2665   001050                     i2u221_40:
  2666   001050                     
  2667                           ;MCAL_Layer/Interrupt/mcal_interrupt_manager.c: 113:         INT1_ISR();
  2668   001050  ECDF  F00E         	call	_INT1_ISR	;wreg free
  2669   001054                     i2l1186:
  2670                           
  2671                           ;MCAL_Layer/Interrupt/mcal_interrupt_manager.c: 118:     if((INTCON3bits.INT2IE == 1) &&
      +                           (INTCON3bits.INT2IF == 1)){
  2672   001054  A8F0               	btfss	240,4,c	;volatile
  2673   001056  EF2F  F008         	goto	i2u222_41
  2674   00105A  EF31  F008         	goto	i2u222_40
  2675   00105E                     i2u222_41:
  2676   00105E  EF3A  F008         	goto	i2l1188
  2677   001062                     i2u222_40:
  2678   001062  A2F0               	btfss	240,1,c	;volatile
  2679   001064  EF36  F008         	goto	i2u223_41
  2680   001068  EF38  F008         	goto	i2u223_40
  2681   00106C                     i2u223_41:
  2682   00106C  EF3A  F008         	goto	i2l1188
  2683   001070                     i2u223_40:
  2684   001070                     
  2685                           ;MCAL_Layer/Interrupt/mcal_interrupt_manager.c: 119:         INT2_ISR();
  2686   001070  ECDD  F00E         	call	_INT2_ISR	;wreg free
  2687   001074                     i2l1188:
  2688                           
  2689                           ;MCAL_Layer/Interrupt/mcal_interrupt_manager.c: 127:     if((INTCONbits.RBIE == 1) && (I
      +                          NTCONbits.RBIF == 1) &&
  2690   001074  A6F2               	btfss	242,3,c	;volatile
  2691   001076  EF3F  F008         	goto	i2u224_41
  2692   00107A  EF41  F008         	goto	i2u224_40
  2693   00107E                     i2u224_41:
  2694   00107E  EF5C  F008         	goto	i2l1190
  2695   001082                     i2u224_40:
  2696   001082  A0F2               	btfss	242,0,c	;volatile
  2697   001084  EF46  F008         	goto	i2u225_41
  2698   001088  EF48  F008         	goto	i2u225_40
  2699   00108C                     i2u225_41:
  2700   00108C  EF5C  F008         	goto	i2l1190
  2701   001090                     i2u225_40:
  2702   001090  A881               	btfss	129,4,c	;volatile
  2703   001092  EF4D  F008         	goto	i2u226_41
  2704   001096  EF4F  F008         	goto	i2u226_40
  2705   00109A                     i2u226_41:
  2706   00109A  EF5C  F008         	goto	i2l1190
  2707   00109E                     i2u226_40:
  2708   00109E  046B               	decf	_RB4_Flag^0,w,c	;volatile
  2709   0010A0  A4D8               	btfss	status,2,c
  2710   0010A2  EF55  F008         	goto	i2u227_41
  2711   0010A6  EF57  F008         	goto	i2u227_40
  2712   0010AA                     i2u227_41:
  2713   0010AA  EF5C  F008         	goto	i2l1190
  2714   0010AE                     i2u227_40:
  2715   0010AE                     
  2716                           ;MCAL_Layer/Interrupt/mcal_interrupt_manager.c: 128:             (PORTBbits.RB4 == LOGIC
      +                          _HIGH) && (RB4_Flag == 1)){;MCAL_Layer/Interrupt/mcal_interrupt_manager.c: 129:         
      +                           RB4_Flag = 0;
  2717   0010AE  0E00               	movlw	0
  2718   0010B0  6E6B               	movwf	_RB4_Flag^0,c	;volatile
  2719   0010B2                     
  2720                           ;MCAL_Layer/Interrupt/mcal_interrupt_manager.c: 130:          RB4_ISR(0);
  2721   0010B2  0E00               	movlw	0
  2722   0010B4  ECAB  F00E         	call	_RB4_ISR
  2723   0010B8                     i2l1190:
  2724                           
  2725                           ;MCAL_Layer/Interrupt/mcal_interrupt_manager.c: 135:     if((INTCONbits.RBIE == 1) && (I
      +                          NTCONbits.RBIF == 1) &&
  2726   0010B8  A6F2               	btfss	242,3,c	;volatile
  2727   0010BA  EF61  F008         	goto	i2u228_41
  2728   0010BE  EF63  F008         	goto	i2u228_40
  2729   0010C2                     i2u228_41:
  2730   0010C2  EF7E  F008         	goto	i2l1192
  2731   0010C6                     i2u228_40:
  2732   0010C6  A0F2               	btfss	242,0,c	;volatile
  2733   0010C8  EF68  F008         	goto	i2u229_41
  2734   0010CC  EF6A  F008         	goto	i2u229_40
  2735   0010D0                     i2u229_41:
  2736   0010D0  EF7E  F008         	goto	i2l1192
  2737   0010D4                     i2u229_40:
  2738   0010D4  B881               	btfsc	129,4,c	;volatile
  2739   0010D6  EF6F  F008         	goto	i2u230_41
  2740   0010DA  EF71  F008         	goto	i2u230_40
  2741   0010DE                     i2u230_41:
  2742   0010DE  EF7E  F008         	goto	i2l1192
  2743   0010E2                     i2u230_40:
  2744   0010E2  506B               	movf	_RB4_Flag^0,w,c	;volatile
  2745   0010E4  A4D8               	btfss	status,2,c
  2746   0010E6  EF77  F008         	goto	i2u231_41
  2747   0010EA  EF79  F008         	goto	i2u231_40
  2748   0010EE                     i2u231_41:
  2749   0010EE  EF7E  F008         	goto	i2l1192
  2750   0010F2                     i2u231_40:
  2751   0010F2                     
  2752                           ;MCAL_Layer/Interrupt/mcal_interrupt_manager.c: 136:             (PORTBbits.RB4 == LOGIC
      +                          _LOW) && (RB4_Flag == 0)){;MCAL_Layer/Interrupt/mcal_interrupt_manager.c: 137:          
      +                          RB4_Flag = 1;
  2753   0010F2  0E01               	movlw	1
  2754   0010F4  6E6B               	movwf	_RB4_Flag^0,c	;volatile
  2755   0010F6                     
  2756                           ;MCAL_Layer/Interrupt/mcal_interrupt_manager.c: 138:          RB4_ISR(1);
  2757   0010F6  0E01               	movlw	1
  2758   0010F8  ECAB  F00E         	call	_RB4_ISR
  2759   0010FC                     i2l1192:
  2760                           
  2761                           ;MCAL_Layer/Interrupt/mcal_interrupt_manager.c: 143:     if((INTCONbits.RBIE == 1) && (I
      +                          NTCONbits.RBIF == 1) &&
  2762   0010FC  A6F2               	btfss	242,3,c	;volatile
  2763   0010FE  EF83  F008         	goto	i2u232_41
  2764   001102  EF85  F008         	goto	i2u232_40
  2765   001106                     i2u232_41:
  2766   001106  EFA0  F008         	goto	i2l1194
  2767   00110A                     i2u232_40:
  2768   00110A  A0F2               	btfss	242,0,c	;volatile
  2769   00110C  EF8A  F008         	goto	i2u233_41
  2770   001110  EF8C  F008         	goto	i2u233_40
  2771   001114                     i2u233_41:
  2772   001114  EFA0  F008         	goto	i2l1194
  2773   001118                     i2u233_40:
  2774   001118  AA81               	btfss	129,5,c	;volatile
  2775   00111A  EF91  F008         	goto	i2u234_41
  2776   00111E  EF93  F008         	goto	i2u234_40
  2777   001122                     i2u234_41:
  2778   001122  EFA0  F008         	goto	i2l1194
  2779   001126                     i2u234_40:
  2780   001126  046A               	decf	_RB5_Flag^0,w,c	;volatile
  2781   001128  A4D8               	btfss	status,2,c
  2782   00112A  EF99  F008         	goto	i2u235_41
  2783   00112E  EF9B  F008         	goto	i2u235_40
  2784   001132                     i2u235_41:
  2785   001132  EFA0  F008         	goto	i2l1194
  2786   001136                     i2u235_40:
  2787   001136                     
  2788                           ;MCAL_Layer/Interrupt/mcal_interrupt_manager.c: 144:             (PORTBbits.RB5 == LOGIC
      +                          _HIGH) && (RB5_Flag == 1)){;MCAL_Layer/Interrupt/mcal_interrupt_manager.c: 145:         
      +                           RB5_Flag = 0;
  2789   001136  0E00               	movlw	0
  2790   001138  6E6A               	movwf	_RB5_Flag^0,c	;volatile
  2791   00113A                     
  2792                           ;MCAL_Layer/Interrupt/mcal_interrupt_manager.c: 146:          RB5_ISR(0);
  2793   00113A  0E00               	movlw	0
  2794   00113C  EC9E  F00E         	call	_RB5_ISR
  2795   001140                     i2l1194:
  2796                           
  2797                           ;MCAL_Layer/Interrupt/mcal_interrupt_manager.c: 151:      if((INTCONbits.RBIE == 1) && (
      +                          INTCONbits.RBIF == 1) &&
  2798   001140  A6F2               	btfss	242,3,c	;volatile
  2799   001142  EFA5  F008         	goto	i2u236_41
  2800   001146  EFA7  F008         	goto	i2u236_40
  2801   00114A                     i2u236_41:
  2802   00114A  EFC2  F008         	goto	i2l1196
  2803   00114E                     i2u236_40:
  2804   00114E  A0F2               	btfss	242,0,c	;volatile
  2805   001150  EFAC  F008         	goto	i2u237_41
  2806   001154  EFAE  F008         	goto	i2u237_40
  2807   001158                     i2u237_41:
  2808   001158  EFC2  F008         	goto	i2l1196
  2809   00115C                     i2u237_40:
  2810   00115C  BA81               	btfsc	129,5,c	;volatile
  2811   00115E  EFB3  F008         	goto	i2u238_41
  2812   001162  EFB5  F008         	goto	i2u238_40
  2813   001166                     i2u238_41:
  2814   001166  EFC2  F008         	goto	i2l1196
  2815   00116A                     i2u238_40:
  2816   00116A  506A               	movf	_RB5_Flag^0,w,c	;volatile
  2817   00116C  A4D8               	btfss	status,2,c
  2818   00116E  EFBB  F008         	goto	i2u239_41
  2819   001172  EFBD  F008         	goto	i2u239_40
  2820   001176                     i2u239_41:
  2821   001176  EFC2  F008         	goto	i2l1196
  2822   00117A                     i2u239_40:
  2823   00117A                     
  2824                           ;MCAL_Layer/Interrupt/mcal_interrupt_manager.c: 152:             (PORTBbits.RB5 == LOGIC
      +                          _LOW) && (RB5_Flag == 0)){;MCAL_Layer/Interrupt/mcal_interrupt_manager.c: 153:          
      +                          RB5_Flag = 1;
  2825   00117A  0E01               	movlw	1
  2826   00117C  6E6A               	movwf	_RB5_Flag^0,c	;volatile
  2827   00117E                     
  2828                           ;MCAL_Layer/Interrupt/mcal_interrupt_manager.c: 154:          RB5_ISR(1);
  2829   00117E  0E01               	movlw	1
  2830   001180  EC9E  F00E         	call	_RB5_ISR
  2831   001184                     i2l1196:
  2832                           
  2833                           ;MCAL_Layer/Interrupt/mcal_interrupt_manager.c: 159:     if((INTCONbits.RBIE == 1) && (I
      +                          NTCONbits.RBIF == 1) &&
  2834   001184  A6F2               	btfss	242,3,c	;volatile
  2835   001186  EFC7  F008         	goto	i2u240_41
  2836   00118A  EFC9  F008         	goto	i2u240_40
  2837   00118E                     i2u240_41:
  2838   00118E  EFE4  F008         	goto	i2l1198
  2839   001192                     i2u240_40:
  2840   001192  A0F2               	btfss	242,0,c	;volatile
  2841   001194  EFCE  F008         	goto	i2u241_41
  2842   001198  EFD0  F008         	goto	i2u241_40
  2843   00119C                     i2u241_41:
  2844   00119C  EFE4  F008         	goto	i2l1198
  2845   0011A0                     i2u241_40:
  2846   0011A0  AC81               	btfss	129,6,c	;volatile
  2847   0011A2  EFD5  F008         	goto	i2u242_41
  2848   0011A6  EFD7  F008         	goto	i2u242_40
  2849   0011AA                     i2u242_41:
  2850   0011AA  EFE4  F008         	goto	i2l1198
  2851   0011AE                     i2u242_40:
  2852   0011AE  0469               	decf	_RB6_Flag^0,w,c	;volatile
  2853   0011B0  A4D8               	btfss	status,2,c
  2854   0011B2  EFDD  F008         	goto	i2u243_41
  2855   0011B6  EFDF  F008         	goto	i2u243_40
  2856   0011BA                     i2u243_41:
  2857   0011BA  EFE4  F008         	goto	i2l1198
  2858   0011BE                     i2u243_40:
  2859   0011BE                     
  2860                           ;MCAL_Layer/Interrupt/mcal_interrupt_manager.c: 160:             (PORTBbits.RB6 == LOGIC
      +                          _HIGH) && (RB6_Flag == 1)){;MCAL_Layer/Interrupt/mcal_interrupt_manager.c: 161:         
      +                           RB6_Flag = 0;
  2861   0011BE  0E00               	movlw	0
  2862   0011C0  6E69               	movwf	_RB6_Flag^0,c	;volatile
  2863   0011C2                     
  2864                           ;MCAL_Layer/Interrupt/mcal_interrupt_manager.c: 162:          RB6_ISR(0);
  2865   0011C2  0E00               	movlw	0
  2866   0011C4  EC91  F00E         	call	_RB6_ISR
  2867   0011C8                     i2l1198:
  2868                           
  2869                           ;MCAL_Layer/Interrupt/mcal_interrupt_manager.c: 167:      if((INTCONbits.RBIE == 1) && (
      +                          INTCONbits.RBIF == 1) &&
  2870   0011C8  A6F2               	btfss	242,3,c	;volatile
  2871   0011CA  EFE9  F008         	goto	i2u244_41
  2872   0011CE  EFEB  F008         	goto	i2u244_40
  2873   0011D2                     i2u244_41:
  2874   0011D2  EF06  F009         	goto	i2l1200
  2875   0011D6                     i2u244_40:
  2876   0011D6  A0F2               	btfss	242,0,c	;volatile
  2877   0011D8  EFF0  F008         	goto	i2u245_41
  2878   0011DC  EFF2  F008         	goto	i2u245_40
  2879   0011E0                     i2u245_41:
  2880   0011E0  EF06  F009         	goto	i2l1200
  2881   0011E4                     i2u245_40:
  2882   0011E4  BC81               	btfsc	129,6,c	;volatile
  2883   0011E6  EFF7  F008         	goto	i2u246_41
  2884   0011EA  EFF9  F008         	goto	i2u246_40
  2885   0011EE                     i2u246_41:
  2886   0011EE  EF06  F009         	goto	i2l1200
  2887   0011F2                     i2u246_40:
  2888   0011F2  5069               	movf	_RB6_Flag^0,w,c	;volatile
  2889   0011F4  A4D8               	btfss	status,2,c
  2890   0011F6  EFFF  F008         	goto	i2u247_41
  2891   0011FA  EF01  F009         	goto	i2u247_40
  2892   0011FE                     i2u247_41:
  2893   0011FE  EF06  F009         	goto	i2l1200
  2894   001202                     i2u247_40:
  2895   001202                     
  2896                           ;MCAL_Layer/Interrupt/mcal_interrupt_manager.c: 168:             (PORTBbits.RB6 ==LOGIC_
      +                          LOW) && (RB6_Flag == 0)){;MCAL_Layer/Interrupt/mcal_interrupt_manager.c: 169:          R
      +                          B6_Flag = 1;
  2897   001202  0E01               	movlw	1
  2898   001204  6E69               	movwf	_RB6_Flag^0,c	;volatile
  2899   001206                     
  2900                           ;MCAL_Layer/Interrupt/mcal_interrupt_manager.c: 170:          RB6_ISR(1);
  2901   001206  0E01               	movlw	1
  2902   001208  EC91  F00E         	call	_RB6_ISR
  2903   00120C                     i2l1200:
  2904                           
  2905                           ;MCAL_Layer/Interrupt/mcal_interrupt_manager.c: 175:     if((INTCONbits.RBIE == 1) && (I
      +                          NTCONbits.RBIF == 1) &&
  2906   00120C  A6F2               	btfss	242,3,c	;volatile
  2907   00120E  EF0B  F009         	goto	i2u248_41
  2908   001212  EF0D  F009         	goto	i2u248_40
  2909   001216                     i2u248_41:
  2910   001216  EF28  F009         	goto	i2l1202
  2911   00121A                     i2u248_40:
  2912   00121A  A0F2               	btfss	242,0,c	;volatile
  2913   00121C  EF12  F009         	goto	i2u249_41
  2914   001220  EF14  F009         	goto	i2u249_40
  2915   001224                     i2u249_41:
  2916   001224  EF28  F009         	goto	i2l1202
  2917   001228                     i2u249_40:
  2918   001228  AE81               	btfss	129,7,c	;volatile
  2919   00122A  EF19  F009         	goto	i2u250_41
  2920   00122E  EF1B  F009         	goto	i2u250_40
  2921   001232                     i2u250_41:
  2922   001232  EF28  F009         	goto	i2l1202
  2923   001236                     i2u250_40:
  2924   001236  0468               	decf	_RB7_Flag^0,w,c	;volatile
  2925   001238  A4D8               	btfss	status,2,c
  2926   00123A  EF21  F009         	goto	i2u251_41
  2927   00123E  EF23  F009         	goto	i2u251_40
  2928   001242                     i2u251_41:
  2929   001242  EF28  F009         	goto	i2l1202
  2930   001246                     i2u251_40:
  2931   001246                     
  2932                           ;MCAL_Layer/Interrupt/mcal_interrupt_manager.c: 176:             (PORTBbits.RB7 == LOGIC
      +                          _HIGH) && (RB7_Flag == 1)){;MCAL_Layer/Interrupt/mcal_interrupt_manager.c: 177:         
      +                           RB7_Flag = 0;
  2933   001246  0E00               	movlw	0
  2934   001248  6E68               	movwf	_RB7_Flag^0,c	;volatile
  2935   00124A                     
  2936                           ;MCAL_Layer/Interrupt/mcal_interrupt_manager.c: 178:          RB7_ISR(0);
  2937   00124A  0E00               	movlw	0
  2938   00124C  EC84  F00E         	call	_RB7_ISR
  2939   001250                     i2l1202:
  2940                           
  2941                           ;MCAL_Layer/Interrupt/mcal_interrupt_manager.c: 183:      if((INTCONbits.RBIE == 1) && (
      +                          INTCONbits.RBIF == 1) &&
  2942   001250  A6F2               	btfss	242,3,c	;volatile
  2943   001252  EF2D  F009         	goto	i2u252_41
  2944   001256  EF2F  F009         	goto	i2u252_40
  2945   00125A                     i2u252_41:
  2946   00125A  EF4A  F009         	goto	i2l1204
  2947   00125E                     i2u252_40:
  2948   00125E  A0F2               	btfss	242,0,c	;volatile
  2949   001260  EF34  F009         	goto	i2u253_41
  2950   001264  EF36  F009         	goto	i2u253_40
  2951   001268                     i2u253_41:
  2952   001268  EF4A  F009         	goto	i2l1204
  2953   00126C                     i2u253_40:
  2954   00126C  BE81               	btfsc	129,7,c	;volatile
  2955   00126E  EF3B  F009         	goto	i2u254_41
  2956   001272  EF3D  F009         	goto	i2u254_40
  2957   001276                     i2u254_41:
  2958   001276  EF4A  F009         	goto	i2l1204
  2959   00127A                     i2u254_40:
  2960   00127A  5068               	movf	_RB7_Flag^0,w,c	;volatile
  2961   00127C  A4D8               	btfss	status,2,c
  2962   00127E  EF43  F009         	goto	i2u255_41
  2963   001282  EF45  F009         	goto	i2u255_40
  2964   001286                     i2u255_41:
  2965   001286  EF4A  F009         	goto	i2l1204
  2966   00128A                     i2u255_40:
  2967   00128A                     
  2968                           ;MCAL_Layer/Interrupt/mcal_interrupt_manager.c: 184:             (PORTBbits.RB7== LOGIC_
      +                          LOW) && (RB7_Flag == 0)){;MCAL_Layer/Interrupt/mcal_interrupt_manager.c: 185:          R
      +                          B7_Flag = 1;
  2969   00128A  0E01               	movlw	1
  2970   00128C  6E68               	movwf	_RB7_Flag^0,c	;volatile
  2971   00128E                     
  2972                           ;MCAL_Layer/Interrupt/mcal_interrupt_manager.c: 186:          RB7_ISR(1);
  2973   00128E  0E01               	movlw	1
  2974   001290  EC84  F00E         	call	_RB7_ISR
  2975   001294                     i2l1204:
  2976                           
  2977                           ;MCAL_Layer/Interrupt/mcal_interrupt_manager.c: 194:     if((PIE1bits.ADIE == 1) && (PIR
      +                          1bits.ADIF == 1)){
  2978   001294  AC9D               	btfss	157,6,c	;volatile
  2979   001296  EF4F  F009         	goto	i2u256_41
  2980   00129A  EF51  F009         	goto	i2u256_40
  2981   00129E                     i2u256_41:
  2982   00129E  EF5A  F009         	goto	i2l1206
  2983   0012A2                     i2u256_40:
  2984   0012A2  AC9E               	btfss	158,6,c	;volatile
  2985   0012A4  EF56  F009         	goto	i2u257_41
  2986   0012A8  EF58  F009         	goto	i2u257_40
  2987   0012AC                     i2u257_41:
  2988   0012AC  EF5A  F009         	goto	i2l1206
  2989   0012B0                     i2u257_40:
  2990   0012B0                     
  2991                           ;MCAL_Layer/Interrupt/mcal_interrupt_manager.c: 195:        ADC_ISR();
  2992   0012B0  ECED  F00E         	call	_ADC_ISR	;wreg free
  2993   0012B4                     i2l1206:
  2994                           
  2995                           ;MCAL_Layer/Interrupt/mcal_interrupt_manager.c: 201:     if((INTCONbits.TMR0IE == 1) && 
      +                          (INTCONbits.TMR0IF == 1)){
  2996   0012B4  AAF2               	btfss	242,5,c	;volatile
  2997   0012B6  EF5F  F009         	goto	i2u258_41
  2998   0012BA  EF61  F009         	goto	i2u258_40
  2999   0012BE                     i2u258_41:
  3000   0012BE  EF6A  F009         	goto	i2l1208
  3001   0012C2                     i2u258_40:
  3002   0012C2  A4F2               	btfss	242,2,c	;volatile
  3003   0012C4  EF66  F009         	goto	i2u259_41
  3004   0012C8  EF68  F009         	goto	i2u259_40
  3005   0012CC                     i2u259_41:
  3006   0012CC  EF6A  F009         	goto	i2l1208
  3007   0012D0                     i2u259_40:
  3008   0012D0                     
  3009                           ;MCAL_Layer/Interrupt/mcal_interrupt_manager.c: 202:         TMR0_ISR();
  3010   0012D0  ECCC  F00E         	call	_TMR0_ISR	;wreg free
  3011   0012D4                     i2l1208:
  3012                           
  3013                           ;MCAL_Layer/Interrupt/mcal_interrupt_manager.c: 207:  if((PIE1bits.TMR1IE == 1) && (PIR1
      +                          bits.TMR1IF == 1)){
  3014   0012D4  A09D               	btfss	157,0,c	;volatile
  3015   0012D6  EF6F  F009         	goto	i2u260_41
  3016   0012DA  EF71  F009         	goto	i2u260_40
  3017   0012DE                     i2u260_41:
  3018   0012DE  EF7A  F009         	goto	i2l1210
  3019   0012E2                     i2u260_40:
  3020   0012E2  A09E               	btfss	158,0,c	;volatile
  3021   0012E4  EF76  F009         	goto	i2u261_41
  3022   0012E8  EF78  F009         	goto	i2u261_40
  3023   0012EC                     i2u261_41:
  3024   0012EC  EF7A  F009         	goto	i2l1210
  3025   0012F0                     i2u261_40:
  3026   0012F0                     
  3027                           ;MCAL_Layer/Interrupt/mcal_interrupt_manager.c: 208:         TMR1_ISR();
  3028   0012F0  ECC6  F00E         	call	_TMR1_ISR	;wreg free
  3029   0012F4                     i2l1210:
  3030                           
  3031                           ;MCAL_Layer/Interrupt/mcal_interrupt_manager.c: 213: if((PIE1bits.TMR2IE == 1) && (PIR1b
      +                          its.TMR2IF == 1)){
  3032   0012F4  A29D               	btfss	157,1,c	;volatile
  3033   0012F6  EF7F  F009         	goto	i2u262_41
  3034   0012FA  EF81  F009         	goto	i2u262_40
  3035   0012FE                     i2u262_41:
  3036   0012FE  EF8A  F009         	goto	i2l1212
  3037   001302                     i2u262_40:
  3038   001302  A29E               	btfss	158,1,c	;volatile
  3039   001304  EF86  F009         	goto	i2u263_41
  3040   001308  EF88  F009         	goto	i2u263_40
  3041   00130C                     i2u263_41:
  3042   00130C  EF8A  F009         	goto	i2l1212
  3043   001310                     i2u263_40:
  3044   001310                     
  3045                           ;MCAL_Layer/Interrupt/mcal_interrupt_manager.c: 214:         TMR2_ISR();
  3046   001310  ECD7  F00E         	call	_TMR2_ISR	;wreg free
  3047   001314                     i2l1212:
  3048                           
  3049                           ;MCAL_Layer/Interrupt/mcal_interrupt_manager.c: 219:     if((PIE2bits.TMR3IE == 1) && (P
      +                          IR2bits.TMR3IF == 1)){
  3050   001314  A2A0               	btfss	160,1,c	;volatile
  3051   001316  EF8F  F009         	goto	i2u264_41
  3052   00131A  EF91  F009         	goto	i2u264_40
  3053   00131E                     i2u264_41:
  3054   00131E  EF9A  F009         	goto	i2l1214
  3055   001322                     i2u264_40:
  3056   001322  A2A1               	btfss	161,1,c	;volatile
  3057   001324  EF96  F009         	goto	i2u265_41
  3058   001328  EF98  F009         	goto	i2u265_40
  3059   00132C                     i2u265_41:
  3060   00132C  EF9A  F009         	goto	i2l1214
  3061   001330                     i2u265_40:
  3062   001330                     
  3063                           ;MCAL_Layer/Interrupt/mcal_interrupt_manager.c: 220:         TMR3_ISR();
  3064   001330  ECC0  F00E         	call	_TMR3_ISR	;wreg free
  3065   001334                     i2l1214:
  3066                           
  3067                           ;MCAL_Layer/Interrupt/mcal_interrupt_manager.c: 225:      if((PIE1bits.CCP1IE == 1) && (
      +                          PIR1bits.CCP1IF == 1)){
  3068   001334  A49D               	btfss	157,2,c	;volatile
  3069   001336  EF9F  F009         	goto	i2u266_41
  3070   00133A  EFA1  F009         	goto	i2u266_40
  3071   00133E                     i2u266_41:
  3072   00133E  EFAA  F009         	goto	i2l1216
  3073   001342                     i2u266_40:
  3074   001342  A49E               	btfss	158,2,c	;volatile
  3075   001344  EFA6  F009         	goto	i2u267_41
  3076   001348  EFA8  F009         	goto	i2u267_40
  3077   00134C                     i2u267_41:
  3078   00134C  EFAA  F009         	goto	i2l1216
  3079   001350                     i2u267_40:
  3080   001350                     
  3081                           ;MCAL_Layer/Interrupt/mcal_interrupt_manager.c: 226:         CCP1_ISR();
  3082   001350  ECEB  F00E         	call	_CCP1_ISR	;wreg free
  3083   001354                     i2l1216:
  3084                           
  3085                           ;MCAL_Layer/Interrupt/mcal_interrupt_manager.c: 231:      if((PIE2bits.CCP2IE == 1) && (
      +                          PIR2bits.CCP2IF == 1)){
  3086   001354  A0A0               	btfss	160,0,c	;volatile
  3087   001356  EFAF  F009         	goto	i2u268_41
  3088   00135A  EFB1  F009         	goto	i2u268_40
  3089   00135E                     i2u268_41:
  3090   00135E  EFBA  F009         	goto	i2l1218
  3091   001362                     i2u268_40:
  3092   001362  A0A1               	btfss	161,0,c	;volatile
  3093   001364  EFB6  F009         	goto	i2u269_41
  3094   001368  EFB8  F009         	goto	i2u269_40
  3095   00136C                     i2u269_41:
  3096   00136C  EFBA  F009         	goto	i2l1218
  3097   001370                     i2u269_40:
  3098   001370                     
  3099                           ;MCAL_Layer/Interrupt/mcal_interrupt_manager.c: 232:         CCP2_ISR();
  3100   001370  ECE9  F00E         	call	_CCP2_ISR	;wreg free
  3101   001374                     i2l1218:
  3102                           
  3103                           ;MCAL_Layer/Interrupt/mcal_interrupt_manager.c: 237:      if((PIE1bits.TXIE == 1) && (PI
      +                          R1bits.TXIF == 1)){
  3104   001374  A89D               	btfss	157,4,c	;volatile
  3105   001376  EFBF  F009         	goto	i2u270_41
  3106   00137A  EFC1  F009         	goto	i2u270_40
  3107   00137E                     i2u270_41:
  3108   00137E  EFCA  F009         	goto	i2l1220
  3109   001382                     i2u270_40:
  3110   001382  A89E               	btfss	158,4,c	;volatile
  3111   001384  EFC6  F009         	goto	i2u271_41
  3112   001388  EFC8  F009         	goto	i2u271_40
  3113   00138C                     i2u271_41:
  3114   00138C  EFCA  F009         	goto	i2l1220
  3115   001390                     i2u271_40:
  3116   001390                     
  3117                           ;MCAL_Layer/Interrupt/mcal_interrupt_manager.c: 238:         EUSART_TX_ASY_ISR();
  3118   001390  ECE7  F00E         	call	_EUSART_TX_ASY_ISR	;wreg free
  3119   001394                     i2l1220:
  3120                           
  3121                           ;MCAL_Layer/Interrupt/mcal_interrupt_manager.c: 243:          if((PIE1bits.RCIE == 1) &&
      +                           (PIR1bits.RCIF == 1)){
  3122   001394  AA9D               	btfss	157,5,c	;volatile
  3123   001396  EFCF  F009         	goto	i2u272_41
  3124   00139A  EFD1  F009         	goto	i2u272_40
  3125   00139E                     i2u272_41:
  3126   00139E  EFDA  F009         	goto	i2l1222
  3127   0013A2                     i2u272_40:
  3128   0013A2  AA9E               	btfss	158,5,c	;volatile
  3129   0013A4  EFD6  F009         	goto	i2u273_41
  3130   0013A8  EFD8  F009         	goto	i2u273_40
  3131   0013AC                     i2u273_41:
  3132   0013AC  EFDA  F009         	goto	i2l1222
  3133   0013B0                     i2u273_40:
  3134   0013B0                     
  3135                           ;MCAL_Layer/Interrupt/mcal_interrupt_manager.c: 244:         EUSART_RX_ASY_ISR();
  3136   0013B0  ECEF  F00E         	call	_EUSART_RX_ASY_ISR	;wreg free
  3137   0013B4                     i2l1222:
  3138                           
  3139                           ;MCAL_Layer/Interrupt/mcal_interrupt_manager.c: 249:      if((PIE1bits.SSPIE == 1) && (P
      +                          IR1bits.SSPIF == 1)){
  3140   0013B4  A69D               	btfss	157,3,c	;volatile
  3141   0013B6  EFDF  F009         	goto	i2u274_41
  3142   0013BA  EFE1  F009         	goto	i2u274_40
  3143   0013BE                     i2u274_41:
  3144   0013BE  EFEA  F009         	goto	i2l1224
  3145   0013C2                     i2u274_40:
  3146   0013C2  A69E               	btfss	158,3,c	;volatile
  3147   0013C4  EFE6  F009         	goto	i2u275_41
  3148   0013C8  EFE8  F009         	goto	i2u275_40
  3149   0013CC                     i2u275_41:
  3150   0013CC  EFEA  F009         	goto	i2l1224
  3151   0013D0                     i2u275_40:
  3152   0013D0                     
  3153                           ;MCAL_Layer/Interrupt/mcal_interrupt_manager.c: 250:         I2C_MODULE_TR_ISR();
  3154   0013D0  ECE3  F00E         	call	_I2C_MODULE_TR_ISR	;wreg free
  3155   0013D4                     i2l1224:
  3156                           
  3157                           ;MCAL_Layer/Interrupt/mcal_interrupt_manager.c: 255:          if((PIE2bits.BCLIE == 1) &
      +                          & (PIR2bits.BCLIF == 1)){
  3158   0013D4  A6A0               	btfss	160,3,c	;volatile
  3159   0013D6  EFEF  F009         	goto	i2u276_41
  3160   0013DA  EFF1  F009         	goto	i2u276_40
  3161   0013DE                     i2u276_41:
  3162   0013DE  EFFA  F009         	goto	i2l1226
  3163   0013E2                     i2u276_40:
  3164   0013E2  A6A1               	btfss	161,3,c	;volatile
  3165   0013E4  EFF6  F009         	goto	i2u277_41
  3166   0013E8  EFF8  F009         	goto	i2u277_40
  3167   0013EC                     i2u277_41:
  3168   0013EC  EFFA  F009         	goto	i2l1226
  3169   0013F0                     i2u277_40:
  3170   0013F0                     
  3171                           ;MCAL_Layer/Interrupt/mcal_interrupt_manager.c: 256:         I2C_BUS_COLLISION_ISR();
  3172   0013F0  ECE5  F00E         	call	_I2C_BUS_COLLISION_ISR	;wreg free
  3173   0013F4                     i2l1226:
  3174                           
  3175                           ;MCAL_Layer/Interrupt/mcal_interrupt_manager.c: 261:      if((PIE1bits.SSPIE == 1) && (P
      +                          IR1bits.SSPIF == 1)){
  3176   0013F4  A69D               	btfss	157,3,c	;volatile
  3177   0013F6  EFFF  F009         	goto	i2u278_41
  3178   0013FA  EF01  F00A         	goto	i2u278_40
  3179   0013FE                     i2u278_41:
  3180   0013FE  EF0A  F00A         	goto	i2l1229
  3181   001402                     i2u278_40:
  3182   001402  A69E               	btfss	158,3,c	;volatile
  3183   001404  EF06  F00A         	goto	i2u279_41
  3184   001408  EF08  F00A         	goto	i2u279_40
  3185   00140C                     i2u279_41:
  3186   00140C  EF0A  F00A         	goto	i2l1229
  3187   001410                     i2u279_40:
  3188   001410                     
  3189                           ;MCAL_Layer/Interrupt/mcal_interrupt_manager.c: 262:         MSSP_Spi_ISR();
  3190   001410  ECDB  F00E         	call	_MSSP_Spi_ISR	;wreg free
  3191   001414                     i2l1229:
  3192   001414  927A               	bcf	int$flags,1,c	;clear compiler interrupt flag (level 2)
  3193   001416  0011               	retfie		f
  3194   001418                     __end_of_InterruptManager:
  3195                           	callstack 0
  3196                           
  3197 ;; *************** function _TMR3_ISR *****************
  3198 ;; Defined at:
  3199 ;;		line 91 in file "MCAL_Layer/TIMER3/hal_timer3.c"
  3200 ;; Parameters:    Size  Location     Type
  3201 ;;		None
  3202 ;; Auto vars:     Size  Location     Type
  3203 ;;		None
  3204 ;; Return value:  Size  Location     Type
  3205 ;;                  1    wreg      void 
  3206 ;; Registers used:
  3207 ;;		wreg, status,2
  3208 ;; Tracked objects:
  3209 ;;		On entry : 0/0
  3210 ;;		On exit  : 0/0
  3211 ;;		Unchanged: 0/0
  3212 ;; Data sizes:     COMRAM   BANK0   BANK1   BANK2   BANK3   BANK4   BANK5   BANK6   BANK7   BANK8   BANK9  BANK10  BANK1
      +1  BANK12  BANK13  BANK14  BANK15
  3213 ;;      Params:         0       0       0       0       0       0       0       0       0       0       0       0       
      +0       0       0       0       0
  3214 ;;      Locals:         0       0       0       0       0       0       0       0       0       0       0       0       
      +0       0       0       0       0
  3215 ;;      Temps:          0       0       0       0       0       0       0       0       0       0       0       0       
      +0       0       0       0       0
  3216 ;;      Totals:         0       0       0       0       0       0       0       0       0       0       0       0       
      +0       0       0       0       0
  3217 ;;Total ram usage:        0 bytes
  3218 ;; Hardware stack levels used: 1
  3219 ;; This function calls:
  3220 ;;		Nothing
  3221 ;; This function is called by:
  3222 ;;		_InterruptManager
  3223 ;; This function uses a non-reentrant model
  3224 ;;
  3225                           
  3226                           	psect	text15
  3227   001D80                     __ptext15:
  3228                           	callstack 0
  3229   001D80                     _TMR3_ISR:
  3230                           	callstack 25
  3231   001D80                     
  3232                           ;MCAL_Layer/TIMER3/hal_timer3.c: 92:  (PIR2bits.TMR3IF = 0 );
  3233   001D80  92A1               	bcf	161,1,c	;volatile
  3234   001D82                     
  3235                           ;MCAL_Layer/TIMER3/hal_timer3.c: 93:   TMR3H = (preload_vall) >> 8;
  3236   001D82  5004               	movf	(_preload_vall+1)^0,w,c	;volatile
  3237   001D84  6EB3               	movwf	179,c	;volatile
  3238   001D86                     
  3239                           ;MCAL_Layer/TIMER3/hal_timer3.c: 94:     TMR3L = (uint8)(preload_vall);
  3240   001D86  C003  FFB2         	movff	_preload_vall,4018	;volatile
  3241   001D8A  0012               	return		;funcret
  3242   001D8C                     __end_of_TMR3_ISR:
  3243                           	callstack 0
  3244                           
  3245 ;; *************** function _TMR2_ISR *****************
  3246 ;; Defined at:
  3247 ;;		line 74 in file "MCAL_Layer/TIMER2/hal_timer2.c"
  3248 ;; Parameters:    Size  Location     Type
  3249 ;;		None
  3250 ;; Auto vars:     Size  Location     Type
  3251 ;;		None
  3252 ;; Return value:  Size  Location     Type
  3253 ;;                  1    wreg      void 
  3254 ;; Registers used:
  3255 ;;		None
  3256 ;; Tracked objects:
  3257 ;;		On entry : 0/0
  3258 ;;		On exit  : 0/0
  3259 ;;		Unchanged: 0/0
  3260 ;; Data sizes:     COMRAM   BANK0   BANK1   BANK2   BANK3   BANK4   BANK5   BANK6   BANK7   BANK8   BANK9  BANK10  BANK1
      +1  BANK12  BANK13  BANK14  BANK15
  3261 ;;      Params:         0       0       0       0       0       0       0       0       0       0       0       0       
      +0       0       0       0       0
  3262 ;;      Locals:         0       0       0       0       0       0       0       0       0       0       0       0       
      +0       0       0       0       0
  3263 ;;      Temps:          0       0       0       0       0       0       0       0       0       0       0       0       
      +0       0       0       0       0
  3264 ;;      Totals:         0       0       0       0       0       0       0       0       0       0       0       0       
      +0       0       0       0       0
  3265 ;;Total ram usage:        0 bytes
  3266 ;; Hardware stack levels used: 1
  3267 ;; This function calls:
  3268 ;;		Nothing
  3269 ;; This function is called by:
  3270 ;;		_InterruptManager
  3271 ;; This function uses a non-reentrant model
  3272 ;;
  3273                           
  3274                           	psect	text16
  3275   001DAE                     __ptext16:
  3276                           	callstack 0
  3277   001DAE                     _TMR2_ISR:
  3278                           	callstack 25
  3279   001DAE                     
  3280                           ;MCAL_Layer/TIMER2/hal_timer2.c: 75:     (PIR1bits.TMR2IF = 0 );
  3281   001DAE  929E               	bcf	158,1,c	;volatile
  3282                           
  3283                           ;MCAL_Layer/TIMER2/hal_timer2.c: 76:     TMR2 = preload_val ;
  3284   001DB0  C03E  FFCC         	movff	_preload_val,4044	;volatile
  3285   001DB4  0012               	return		;funcret
  3286   001DB6                     __end_of_TMR2_ISR:
  3287                           	callstack 0
  3288                           
  3289 ;; *************** function _TMR1_ISR *****************
  3290 ;; Defined at:
  3291 ;;		line 108 in file "MCAL_Layer/TIMER1/hal_timer1.c"
  3292 ;; Parameters:    Size  Location     Type
  3293 ;;		None
  3294 ;; Auto vars:     Size  Location     Type
  3295 ;;		None
  3296 ;; Return value:  Size  Location     Type
  3297 ;;                  1    wreg      void 
  3298 ;; Registers used:
  3299 ;;		wreg, status,2
  3300 ;; Tracked objects:
  3301 ;;		On entry : 0/0
  3302 ;;		On exit  : 0/0
  3303 ;;		Unchanged: 0/0
  3304 ;; Data sizes:     COMRAM   BANK0   BANK1   BANK2   BANK3   BANK4   BANK5   BANK6   BANK7   BANK8   BANK9  BANK10  BANK1
      +1  BANK12  BANK13  BANK14  BANK15
  3305 ;;      Params:         0       0       0       0       0       0       0       0       0       0       0       0       
      +0       0       0       0       0
  3306 ;;      Locals:         0       0       0       0       0       0       0       0       0       0       0       0       
      +0       0       0       0       0
  3307 ;;      Temps:          0       0       0       0       0       0       0       0       0       0       0       0       
      +0       0       0       0       0
  3308 ;;      Totals:         0       0       0       0       0       0       0       0       0       0       0       0       
      +0       0       0       0       0
  3309 ;;Total ram usage:        0 bytes
  3310 ;; Hardware stack levels used: 1
  3311 ;; This function calls:
  3312 ;;		Nothing
  3313 ;; This function is called by:
  3314 ;;		_InterruptManager
  3315 ;; This function uses a non-reentrant model
  3316 ;;
  3317                           
  3318                           	psect	text17
  3319   001D8C                     __ptext17:
  3320                           	callstack 0
  3321   001D8C                     _TMR1_ISR:
  3322                           	callstack 25
  3323   001D8C                     
  3324                           ;MCAL_Layer/TIMER1/hal_timer1.c: 109:     (PIR1bits.TMR1IF = 0 );
  3325   001D8C  909E               	bcf	158,0,c	;volatile
  3326   001D8E                     
  3327                           ;MCAL_Layer/TIMER1/hal_timer1.c: 110:      TMR1H = ((preload_value)>>8);
  3328   001D8E  500C               	movf	(_preload_value@hal_timer1$F3666+1)^0,w,c	;volatile
  3329   001D90  6ECF               	movwf	207,c	;volatile
  3330   001D92                     
  3331                           ;MCAL_Layer/TIMER1/hal_timer1.c: 111:        TMR1L = (uint8)(preload_value);
  3332   001D92  C00B  FFCE         	movff	_preload_value@hal_timer1$F3666,4046	;volatile
  3333   001D96  0012               	return		;funcret
  3334   001D98                     __end_of_TMR1_ISR:
  3335                           	callstack 0
  3336                           
  3337 ;; *************** function _TMR0_ISR *****************
  3338 ;; Defined at:
  3339 ;;		line 149 in file "MCAL_Layer/TIMER0/hal_timer0.c"
  3340 ;; Parameters:    Size  Location     Type
  3341 ;;		None
  3342 ;; Auto vars:     Size  Location     Type
  3343 ;;		None
  3344 ;; Return value:  Size  Location     Type
  3345 ;;                  1    wreg      void 
  3346 ;; Registers used:
  3347 ;;		wreg, status,2
  3348 ;; Tracked objects:
  3349 ;;		On entry : 0/0
  3350 ;;		On exit  : 0/0
  3351 ;;		Unchanged: 0/0
  3352 ;; Data sizes:     COMRAM   BANK0   BANK1   BANK2   BANK3   BANK4   BANK5   BANK6   BANK7   BANK8   BANK9  BANK10  BANK1
      +1  BANK12  BANK13  BANK14  BANK15
  3353 ;;      Params:         0       0       0       0       0       0       0       0       0       0       0       0       
      +0       0       0       0       0
  3354 ;;      Locals:         0       0       0       0       0       0       0       0       0       0       0       0       
      +0       0       0       0       0
  3355 ;;      Temps:          0       0       0       0       0       0       0       0       0       0       0       0       
      +0       0       0       0       0
  3356 ;;      Totals:         0       0       0       0       0       0       0       0       0       0       0       0       
      +0       0       0       0       0
  3357 ;;Total ram usage:        0 bytes
  3358 ;; Hardware stack levels used: 1
  3359 ;; This function calls:
  3360 ;;		Nothing
  3361 ;; This function is called by:
  3362 ;;		_InterruptManager
  3363 ;; This function uses a non-reentrant model
  3364 ;;
  3365                           
  3366                           	psect	text18
  3367   001D98                     __ptext18:
  3368                           	callstack 0
  3369   001D98                     _TMR0_ISR:
  3370                           	callstack 25
  3371   001D98                     
  3372                           ;MCAL_Layer/TIMER0/hal_timer0.c: 150:     (INTCONbits.TMR0IF = 0);
  3373   001D98  94F2               	bcf	242,2,c	;volatile
  3374   001D9A                     
  3375                           ;MCAL_Layer/TIMER0/hal_timer0.c: 151:     TMR0H = (preload_value >> 8);
  3376   001D9A  5010               	movf	(_preload_value+1)^0,w,c	;volatile
  3377   001D9C  6ED7               	movwf	215,c	;volatile
  3378   001D9E                     
  3379                           ;MCAL_Layer/TIMER0/hal_timer0.c: 152:     TMR0L =(uint8)(preload_value);
  3380   001D9E  C00F  FFD6         	movff	_preload_value,4054	;volatile
  3381   001DA2  0012               	return		;funcret
  3382   001DA4                     __end_of_TMR0_ISR:
  3383                           	callstack 0
  3384                           
  3385 ;; *************** function _RB7_ISR *****************
  3386 ;; Defined at:
  3387 ;;		line 609 in file "MCAL_Layer/Interrupt/mcal_external_interrupt.c"
  3388 ;; Parameters:    Size  Location     Type
  3389 ;;  RB7_source      1    wreg     unsigned char 
  3390 ;; Auto vars:     Size  Location     Type
  3391 ;;  RB7_source      1    0[COMRAM] unsigned char 
  3392 ;; Return value:  Size  Location     Type
  3393 ;;                  1    wreg      void 
  3394 ;; Registers used:
  3395 ;;		wreg, status,2, status,0
  3396 ;; Tracked objects:
  3397 ;;		On entry : 0/0
  3398 ;;		On exit  : 0/0
  3399 ;;		Unchanged: 0/0
  3400 ;; Data sizes:     COMRAM   BANK0   BANK1   BANK2   BANK3   BANK4   BANK5   BANK6   BANK7   BANK8   BANK9  BANK10  BANK1
      +1  BANK12  BANK13  BANK14  BANK15
  3401 ;;      Params:         0       0       0       0       0       0       0       0       0       0       0       0       
      +0       0       0       0       0
  3402 ;;      Locals:         1       0       0       0       0       0       0       0       0       0       0       0       
      +0       0       0       0       0
  3403 ;;      Temps:          0       0       0       0       0       0       0       0       0       0       0       0       
      +0       0       0       0       0
  3404 ;;      Totals:         1       0       0       0       0       0       0       0       0       0       0       0       
      +0       0       0       0       0
  3405 ;;Total ram usage:        1 bytes
  3406 ;; Hardware stack levels used: 1
  3407 ;; This function calls:
  3408 ;;		Nothing
  3409 ;; This function is called by:
  3410 ;;		_InterruptManager
  3411 ;; This function uses a non-reentrant model
  3412 ;;
  3413                           
  3414                           	psect	text19
  3415   001D08                     __ptext19:
  3416                           	callstack 0
  3417   001D08                     _RB7_ISR:
  3418                           	callstack 25
  3419                           
  3420                           ;incstack = 0
  3421                           ;RB7_ISR@RB7_source stored from wreg
  3422   001D08  6E6C               	movwf	RB7_ISR@RB7_source^0,c
  3423   001D0A                     
  3424                           ;MCAL_Layer/Interrupt/mcal_external_interrupt.c: 611:     (INTCONbits.RBIF = 0);
  3425   001D0A  90F2               	bcf	242,0,c	;volatile
  3426   001D0C                     
  3427                           ;MCAL_Layer/Interrupt/mcal_external_interrupt.c: 613:     if(0 == RB7_source){
  3428   001D0C  506C               	movf	RB7_ISR@RB7_source^0,w,c
  3429   001D0E  A4D8               	btfss	status,2,c
  3430   001D10  EF8C  F00E         	goto	i2u65_41
  3431   001D14  EF8E  F00E         	goto	i2u65_40
  3432   001D18                     i2u65_41:
  3433   001D18  EF90  F00E         	goto	i2l3049
  3434   001D1C                     i2u65_40:
  3435   001D1C  EF90  F00E         	goto	i2l1118
  3436   001D20                     i2l3049:
  3437   001D20                     i2l1118:
  3438   001D20  0012               	return		;funcret
  3439   001D22                     __end_of_RB7_ISR:
  3440                           	callstack 0
  3441                           
  3442 ;; *************** function _RB6_ISR *****************
  3443 ;; Defined at:
  3444 ;;		line 585 in file "MCAL_Layer/Interrupt/mcal_external_interrupt.c"
  3445 ;; Parameters:    Size  Location     Type
  3446 ;;  RB6_source      1    wreg     unsigned char 
  3447 ;; Auto vars:     Size  Location     Type
  3448 ;;  RB6_source      1    0[COMRAM] unsigned char 
  3449 ;; Return value:  Size  Location     Type
  3450 ;;                  1    wreg      void 
  3451 ;; Registers used:
  3452 ;;		wreg, status,2, status,0
  3453 ;; Tracked objects:
  3454 ;;		On entry : 0/0
  3455 ;;		On exit  : 0/0
  3456 ;;		Unchanged: 0/0
  3457 ;; Data sizes:     COMRAM   BANK0   BANK1   BANK2   BANK3   BANK4   BANK5   BANK6   BANK7   BANK8   BANK9  BANK10  BANK1
      +1  BANK12  BANK13  BANK14  BANK15
  3458 ;;      Params:         0       0       0       0       0       0       0       0       0       0       0       0       
      +0       0       0       0       0
  3459 ;;      Locals:         1       0       0       0       0       0       0       0       0       0       0       0       
      +0       0       0       0       0
  3460 ;;      Temps:          0       0       0       0       0       0       0       0       0       0       0       0       
      +0       0       0       0       0
  3461 ;;      Totals:         1       0       0       0       0       0       0       0       0       0       0       0       
      +0       0       0       0       0
  3462 ;;Total ram usage:        1 bytes
  3463 ;; Hardware stack levels used: 1
  3464 ;; This function calls:
  3465 ;;		Nothing
  3466 ;; This function is called by:
  3467 ;;		_InterruptManager
  3468 ;; This function uses a non-reentrant model
  3469 ;;
  3470                           
  3471                           	psect	text20
  3472   001D22                     __ptext20:
  3473                           	callstack 0
  3474   001D22                     _RB6_ISR:
  3475                           	callstack 25
  3476                           
  3477                           ;incstack = 0
  3478                           ;RB6_ISR@RB6_source stored from wreg
  3479   001D22  6E6C               	movwf	RB6_ISR@RB6_source^0,c
  3480   001D24                     
  3481                           ;MCAL_Layer/Interrupt/mcal_external_interrupt.c: 587:     (INTCONbits.RBIF = 0);
  3482   001D24  90F2               	bcf	242,0,c	;volatile
  3483   001D26                     
  3484                           ;MCAL_Layer/Interrupt/mcal_external_interrupt.c: 589:     if(0 == RB6_source){
  3485   001D26  506C               	movf	RB6_ISR@RB6_source^0,w,c
  3486   001D28  A4D8               	btfss	status,2,c
  3487   001D2A  EF99  F00E         	goto	i2u64_41
  3488   001D2E  EF9B  F00E         	goto	i2u64_40
  3489   001D32                     i2u64_41:
  3490   001D32  EF9D  F00E         	goto	i2l3035
  3491   001D36                     i2u64_40:
  3492   001D36  EF9D  F00E         	goto	i2l1107
  3493   001D3A                     i2l3035:
  3494   001D3A                     i2l1107:
  3495   001D3A  0012               	return		;funcret
  3496   001D3C                     __end_of_RB6_ISR:
  3497                           	callstack 0
  3498                           
  3499 ;; *************** function _RB5_ISR *****************
  3500 ;; Defined at:
  3501 ;;		line 561 in file "MCAL_Layer/Interrupt/mcal_external_interrupt.c"
  3502 ;; Parameters:    Size  Location     Type
  3503 ;;  RB5_source      1    wreg     unsigned char 
  3504 ;; Auto vars:     Size  Location     Type
  3505 ;;  RB5_source      1    0[COMRAM] unsigned char 
  3506 ;; Return value:  Size  Location     Type
  3507 ;;                  1    wreg      void 
  3508 ;; Registers used:
  3509 ;;		wreg, status,2, status,0
  3510 ;; Tracked objects:
  3511 ;;		On entry : 0/0
  3512 ;;		On exit  : 0/0
  3513 ;;		Unchanged: 0/0
  3514 ;; Data sizes:     COMRAM   BANK0   BANK1   BANK2   BANK3   BANK4   BANK5   BANK6   BANK7   BANK8   BANK9  BANK10  BANK1
      +1  BANK12  BANK13  BANK14  BANK15
  3515 ;;      Params:         0       0       0       0       0       0       0       0       0       0       0       0       
      +0       0       0       0       0
  3516 ;;      Locals:         1       0       0       0       0       0       0       0       0       0       0       0       
      +0       0       0       0       0
  3517 ;;      Temps:          0       0       0       0       0       0       0       0       0       0       0       0       
      +0       0       0       0       0
  3518 ;;      Totals:         1       0       0       0       0       0       0       0       0       0       0       0       
      +0       0       0       0       0
  3519 ;;Total ram usage:        1 bytes
  3520 ;; Hardware stack levels used: 1
  3521 ;; This function calls:
  3522 ;;		Nothing
  3523 ;; This function is called by:
  3524 ;;		_InterruptManager
  3525 ;; This function uses a non-reentrant model
  3526 ;;
  3527                           
  3528                           	psect	text21
  3529   001D3C                     __ptext21:
  3530                           	callstack 0
  3531   001D3C                     _RB5_ISR:
  3532                           	callstack 25
  3533                           
  3534                           ;incstack = 0
  3535                           ;RB5_ISR@RB5_source stored from wreg
  3536   001D3C  6E6C               	movwf	RB5_ISR@RB5_source^0,c
  3537   001D3E                     
  3538                           ;MCAL_Layer/Interrupt/mcal_external_interrupt.c: 563:     (INTCONbits.RBIF = 0);
  3539   001D3E  90F2               	bcf	242,0,c	;volatile
  3540   001D40                     
  3541                           ;MCAL_Layer/Interrupt/mcal_external_interrupt.c: 565:     if(0 == RB5_source){
  3542   001D40  506C               	movf	RB5_ISR@RB5_source^0,w,c
  3543   001D42  A4D8               	btfss	status,2,c
  3544   001D44  EFA6  F00E         	goto	i2u63_41
  3545   001D48  EFA8  F00E         	goto	i2u63_40
  3546   001D4C                     i2u63_41:
  3547   001D4C  EFAA  F00E         	goto	i2l3021
  3548   001D50                     i2u63_40:
  3549   001D50  EFAA  F00E         	goto	i2l1096
  3550   001D54                     i2l3021:
  3551   001D54                     i2l1096:
  3552   001D54  0012               	return		;funcret
  3553   001D56                     __end_of_RB5_ISR:
  3554                           	callstack 0
  3555                           
  3556 ;; *************** function _RB4_ISR *****************
  3557 ;; Defined at:
  3558 ;;		line 536 in file "MCAL_Layer/Interrupt/mcal_external_interrupt.c"
  3559 ;; Parameters:    Size  Location     Type
  3560 ;;  RB4_source      1    wreg     unsigned char 
  3561 ;; Auto vars:     Size  Location     Type
  3562 ;;  RB4_source      1    0[COMRAM] unsigned char 
  3563 ;; Return value:  Size  Location     Type
  3564 ;;                  1    wreg      void 
  3565 ;; Registers used:
  3566 ;;		wreg, status,2, status,0
  3567 ;; Tracked objects:
  3568 ;;		On entry : 0/0
  3569 ;;		On exit  : 0/0
  3570 ;;		Unchanged: 0/0
  3571 ;; Data sizes:     COMRAM   BANK0   BANK1   BANK2   BANK3   BANK4   BANK5   BANK6   BANK7   BANK8   BANK9  BANK10  BANK1
      +1  BANK12  BANK13  BANK14  BANK15
  3572 ;;      Params:         0       0       0       0       0       0       0       0       0       0       0       0       
      +0       0       0       0       0
  3573 ;;      Locals:         1       0       0       0       0       0       0       0       0       0       0       0       
      +0       0       0       0       0
  3574 ;;      Temps:          0       0       0       0       0       0       0       0       0       0       0       0       
      +0       0       0       0       0
  3575 ;;      Totals:         1       0       0       0       0       0       0       0       0       0       0       0       
      +0       0       0       0       0
  3576 ;;Total ram usage:        1 bytes
  3577 ;; Hardware stack levels used: 1
  3578 ;; This function calls:
  3579 ;;		Nothing
  3580 ;; This function is called by:
  3581 ;;		_InterruptManager
  3582 ;; This function uses a non-reentrant model
  3583 ;;
  3584                           
  3585                           	psect	text22
  3586   001D56                     __ptext22:
  3587                           	callstack 0
  3588   001D56                     _RB4_ISR:
  3589                           	callstack 25
  3590                           
  3591                           ;incstack = 0
  3592                           ;RB4_ISR@RB4_source stored from wreg
  3593   001D56  6E6C               	movwf	RB4_ISR@RB4_source^0,c
  3594   001D58                     
  3595                           ;MCAL_Layer/Interrupt/mcal_external_interrupt.c: 538:     (INTCONbits.RBIF = 0);
  3596   001D58  90F2               	bcf	242,0,c	;volatile
  3597   001D5A                     
  3598                           ;MCAL_Layer/Interrupt/mcal_external_interrupt.c: 540:     if(0 == RB4_source){
  3599   001D5A  506C               	movf	RB4_ISR@RB4_source^0,w,c
  3600   001D5C  A4D8               	btfss	status,2,c
  3601   001D5E  EFB3  F00E         	goto	i2u62_41
  3602   001D62  EFB5  F00E         	goto	i2u62_40
  3603   001D66                     i2u62_41:
  3604   001D66  EFB7  F00E         	goto	i2l3007
  3605   001D6A                     i2u62_40:
  3606   001D6A  EFB7  F00E         	goto	i2l1085
  3607   001D6E                     i2l3007:
  3608   001D6E                     i2l1085:
  3609   001D6E  0012               	return		;funcret
  3610   001D70                     __end_of_RB4_ISR:
  3611                           	callstack 0
  3612                           
  3613 ;; *************** function _MSSP_Spi_ISR *****************
  3614 ;; Defined at:
  3615 ;;		line 171 in file "MCAL_Layer/MSSP_SPI/hal_spi.c"
  3616 ;; Parameters:    Size  Location     Type
  3617 ;;		None
  3618 ;; Auto vars:     Size  Location     Type
  3619 ;;		None
  3620 ;; Return value:  Size  Location     Type
  3621 ;;                  1    wreg      void 
  3622 ;; Registers used:
  3623 ;;		None
  3624 ;; Tracked objects:
  3625 ;;		On entry : 0/0
  3626 ;;		On exit  : 0/0
  3627 ;;		Unchanged: 0/0
  3628 ;; Data sizes:     COMRAM   BANK0   BANK1   BANK2   BANK3   BANK4   BANK5   BANK6   BANK7   BANK8   BANK9  BANK10  BANK1
      +1  BANK12  BANK13  BANK14  BANK15
  3629 ;;      Params:         0       0       0       0       0       0       0       0       0       0       0       0       
      +0       0       0       0       0
  3630 ;;      Locals:         0       0       0       0       0       0       0       0       0       0       0       0       
      +0       0       0       0       0
  3631 ;;      Temps:          0       0       0       0       0       0       0       0       0       0       0       0       
      +0       0       0       0       0
  3632 ;;      Totals:         0       0       0       0       0       0       0       0       0       0       0       0       
      +0       0       0       0       0
  3633 ;;Total ram usage:        0 bytes
  3634 ;; Hardware stack levels used: 1
  3635 ;; This function calls:
  3636 ;;		Nothing
  3637 ;; This function is called by:
  3638 ;;		_InterruptManager
  3639 ;; This function uses a non-reentrant model
  3640 ;;
  3641                           
  3642                           	psect	text23
  3643   001DB6                     __ptext23:
  3644                           	callstack 0
  3645   001DB6                     _MSSP_Spi_ISR:
  3646                           	callstack 25
  3647   001DB6                     
  3648                           ;MCAL_Layer/MSSP_SPI/hal_spi.c: 172:   (PIR1bits.SSPIF = 0 );
  3649   001DB6  969E               	bcf	158,3,c	;volatile
  3650   001DB8  0012               	return		;funcret
  3651   001DBA                     __end_of_MSSP_Spi_ISR:
  3652                           	callstack 0
  3653                           
  3654 ;; *************** function _INT2_ISR *****************
  3655 ;; Defined at:
  3656 ;;		line 522 in file "MCAL_Layer/Interrupt/mcal_external_interrupt.c"
  3657 ;; Parameters:    Size  Location     Type
  3658 ;;		None
  3659 ;; Auto vars:     Size  Location     Type
  3660 ;;		None
  3661 ;; Return value:  Size  Location     Type
  3662 ;;                  1    wreg      void 
  3663 ;; Registers used:
  3664 ;;		None
  3665 ;; Tracked objects:
  3666 ;;		On entry : 0/0
  3667 ;;		On exit  : 0/0
  3668 ;;		Unchanged: 0/0
  3669 ;; Data sizes:     COMRAM   BANK0   BANK1   BANK2   BANK3   BANK4   BANK5   BANK6   BANK7   BANK8   BANK9  BANK10  BANK1
      +1  BANK12  BANK13  BANK14  BANK15
  3670 ;;      Params:         0       0       0       0       0       0       0       0       0       0       0       0       
      +0       0       0       0       0
  3671 ;;      Locals:         0       0       0       0       0       0       0       0       0       0       0       0       
      +0       0       0       0       0
  3672 ;;      Temps:          0       0       0       0       0       0       0       0       0       0       0       0       
      +0       0       0       0       0
  3673 ;;      Totals:         0       0       0       0       0       0       0       0       0       0       0       0       
      +0       0       0       0       0
  3674 ;;Total ram usage:        0 bytes
  3675 ;; Hardware stack levels used: 1
  3676 ;; This function calls:
  3677 ;;		Nothing
  3678 ;; This function is called by:
  3679 ;;		_InterruptManager
  3680 ;; This function uses a non-reentrant model
  3681 ;;
  3682                           
  3683                           	psect	text24
  3684   001DBA                     __ptext24:
  3685                           	callstack 0
  3686   001DBA                     _INT2_ISR:
  3687                           	callstack 25
  3688   001DBA                     
  3689                           ;MCAL_Layer/Interrupt/mcal_external_interrupt.c: 524:     (INTCON3bits.INT2IF = 0);
  3690   001DBA  92F0               	bcf	240,1,c	;volatile
  3691   001DBC  0012               	return		;funcret
  3692   001DBE                     __end_of_INT2_ISR:
  3693                           	callstack 0
  3694                           
  3695 ;; *************** function _INT1_ISR *****************
  3696 ;; Defined at:
  3697 ;;		line 508 in file "MCAL_Layer/Interrupt/mcal_external_interrupt.c"
  3698 ;; Parameters:    Size  Location     Type
  3699 ;;		None
  3700 ;; Auto vars:     Size  Location     Type
  3701 ;;		None
  3702 ;; Return value:  Size  Location     Type
  3703 ;;                  1    wreg      void 
  3704 ;; Registers used:
  3705 ;;		None
  3706 ;; Tracked objects:
  3707 ;;		On entry : 0/0
  3708 ;;		On exit  : 0/0
  3709 ;;		Unchanged: 0/0
  3710 ;; Data sizes:     COMRAM   BANK0   BANK1   BANK2   BANK3   BANK4   BANK5   BANK6   BANK7   BANK8   BANK9  BANK10  BANK1
      +1  BANK12  BANK13  BANK14  BANK15
  3711 ;;      Params:         0       0       0       0       0       0       0       0       0       0       0       0       
      +0       0       0       0       0
  3712 ;;      Locals:         0       0       0       0       0       0       0       0       0       0       0       0       
      +0       0       0       0       0
  3713 ;;      Temps:          0       0       0       0       0       0       0       0       0       0       0       0       
      +0       0       0       0       0
  3714 ;;      Totals:         0       0       0       0       0       0       0       0       0       0       0       0       
      +0       0       0       0       0
  3715 ;;Total ram usage:        0 bytes
  3716 ;; Hardware stack levels used: 1
  3717 ;; This function calls:
  3718 ;;		Nothing
  3719 ;; This function is called by:
  3720 ;;		_InterruptManager
  3721 ;; This function uses a non-reentrant model
  3722 ;;
  3723                           
  3724                           	psect	text25
  3725   001DBE                     __ptext25:
  3726                           	callstack 0
  3727   001DBE                     _INT1_ISR:
  3728                           	callstack 25
  3729   001DBE                     
  3730                           ;MCAL_Layer/Interrupt/mcal_external_interrupt.c: 510:     (INTCON3bits.INT1IF = 0);
  3731   001DBE  90F0               	bcf	240,0,c	;volatile
  3732   001DC0  0012               	return		;funcret
  3733   001DC2                     __end_of_INT1_ISR:
  3734                           	callstack 0
  3735                           
  3736 ;; *************** function _INT0_ISR *****************
  3737 ;; Defined at:
  3738 ;;		line 497 in file "MCAL_Layer/Interrupt/mcal_external_interrupt.c"
  3739 ;; Parameters:    Size  Location     Type
  3740 ;;		None
  3741 ;; Auto vars:     Size  Location     Type
  3742 ;;		None
  3743 ;; Return value:  Size  Location     Type
  3744 ;;                  1    wreg      void 
  3745 ;; Registers used:
  3746 ;;		None
  3747 ;; Tracked objects:
  3748 ;;		On entry : 0/0
  3749 ;;		On exit  : 0/0
  3750 ;;		Unchanged: 0/0
  3751 ;; Data sizes:     COMRAM   BANK0   BANK1   BANK2   BANK3   BANK4   BANK5   BANK6   BANK7   BANK8   BANK9  BANK10  BANK1
      +1  BANK12  BANK13  BANK14  BANK15
  3752 ;;      Params:         0       0       0       0       0       0       0       0       0       0       0       0       
      +0       0       0       0       0
  3753 ;;      Locals:         0       0       0       0       0       0       0       0       0       0       0       0       
      +0       0       0       0       0
  3754 ;;      Temps:          0       0       0       0       0       0       0       0       0       0       0       0       
      +0       0       0       0       0
  3755 ;;      Totals:         0       0       0       0       0       0       0       0       0       0       0       0       
      +0       0       0       0       0
  3756 ;;Total ram usage:        0 bytes
  3757 ;; Hardware stack levels used: 1
  3758 ;; This function calls:
  3759 ;;		Nothing
  3760 ;; This function is called by:
  3761 ;;		_InterruptManager
  3762 ;; This function uses a non-reentrant model
  3763 ;;
  3764                           
  3765                           	psect	text26
  3766   001DC2                     __ptext26:
  3767                           	callstack 0
  3768   001DC2                     _INT0_ISR:
  3769                           	callstack 25
  3770   001DC2                     
  3771                           ;MCAL_Layer/Interrupt/mcal_external_interrupt.c: 499:     (INTCONbits.INT0IF = 0);
  3772   001DC2  92F2               	bcf	242,1,c	;volatile
  3773   001DC4  0012               	return		;funcret
  3774   001DC6                     __end_of_INT0_ISR:
  3775                           	callstack 0
  3776                           
  3777 ;; *************** function _I2C_MODULE_TR_ISR *****************
  3778 ;; Defined at:
  3779 ;;		line 242 in file "MCAL_Layer/MSSP_I2C/hal_i2c.c"
  3780 ;; Parameters:    Size  Location     Type
  3781 ;;		None
  3782 ;; Auto vars:     Size  Location     Type
  3783 ;;		None
  3784 ;; Return value:  Size  Location     Type
  3785 ;;                  1    wreg      void 
  3786 ;; Registers used:
  3787 ;;		None
  3788 ;; Tracked objects:
  3789 ;;		On entry : 0/0
  3790 ;;		On exit  : 0/0
  3791 ;;		Unchanged: 0/0
  3792 ;; Data sizes:     COMRAM   BANK0   BANK1   BANK2   BANK3   BANK4   BANK5   BANK6   BANK7   BANK8   BANK9  BANK10  BANK1
      +1  BANK12  BANK13  BANK14  BANK15
  3793 ;;      Params:         0       0       0       0       0       0       0       0       0       0       0       0       
      +0       0       0       0       0
  3794 ;;      Locals:         0       0       0       0       0       0       0       0       0       0       0       0       
      +0       0       0       0       0
  3795 ;;      Temps:          0       0       0       0       0       0       0       0       0       0       0       0       
      +0       0       0       0       0
  3796 ;;      Totals:         0       0       0       0       0       0       0       0       0       0       0       0       
      +0       0       0       0       0
  3797 ;;Total ram usage:        0 bytes
  3798 ;; Hardware stack levels used: 1
  3799 ;; This function calls:
  3800 ;;		Nothing
  3801 ;; This function is called by:
  3802 ;;		_InterruptManager
  3803 ;; This function uses a non-reentrant model
  3804 ;;
  3805                           
  3806                           	psect	text27
  3807   001DC6                     __ptext27:
  3808                           	callstack 0
  3809   001DC6                     _I2C_MODULE_TR_ISR:
  3810                           	callstack 25
  3811   001DC6                     
  3812                           ;MCAL_Layer/MSSP_I2C/hal_i2c.c: 243: (PIR1bits.SSPIF = 0);
  3813   001DC6  969E               	bcf	158,3,c	;volatile
  3814   001DC8  0012               	return		;funcret
  3815   001DCA                     __end_of_I2C_MODULE_TR_ISR:
  3816                           	callstack 0
  3817                           
  3818 ;; *************** function _I2C_BUS_COLLISION_ISR *****************
  3819 ;; Defined at:
  3820 ;;		line 233 in file "MCAL_Layer/MSSP_I2C/hal_i2c.c"
  3821 ;; Parameters:    Size  Location     Type
  3822 ;;		None
  3823 ;; Auto vars:     Size  Location     Type
  3824 ;;		None
  3825 ;; Return value:  Size  Location     Type
  3826 ;;                  1    wreg      void 
  3827 ;; Registers used:
  3828 ;;		None
  3829 ;; Tracked objects:
  3830 ;;		On entry : 0/0
  3831 ;;		On exit  : 0/0
  3832 ;;		Unchanged: 0/0
  3833 ;; Data sizes:     COMRAM   BANK0   BANK1   BANK2   BANK3   BANK4   BANK5   BANK6   BANK7   BANK8   BANK9  BANK10  BANK1
      +1  BANK12  BANK13  BANK14  BANK15
  3834 ;;      Params:         0       0       0       0       0       0       0       0       0       0       0       0       
      +0       0       0       0       0
  3835 ;;      Locals:         0       0       0       0       0       0       0       0       0       0       0       0       
      +0       0       0       0       0
  3836 ;;      Temps:          0       0       0       0       0       0       0       0       0       0       0       0       
      +0       0       0       0       0
  3837 ;;      Totals:         0       0       0       0       0       0       0       0       0       0       0       0       
      +0       0       0       0       0
  3838 ;;Total ram usage:        0 bytes
  3839 ;; Hardware stack levels used: 1
  3840 ;; This function calls:
  3841 ;;		Nothing
  3842 ;; This function is called by:
  3843 ;;		_InterruptManager
  3844 ;; This function uses a non-reentrant model
  3845 ;;
  3846                           
  3847                           	psect	text28
  3848   001DCA                     __ptext28:
  3849                           	callstack 0
  3850   001DCA                     _I2C_BUS_COLLISION_ISR:
  3851                           	callstack 25
  3852   001DCA                     
  3853                           ;MCAL_Layer/MSSP_I2C/hal_i2c.c: 234: (PIR2bits.BCLIF = 0);
  3854   001DCA  96A1               	bcf	161,3,c	;volatile
  3855   001DCC  0012               	return		;funcret
  3856   001DCE                     __end_of_I2C_BUS_COLLISION_ISR:
  3857                           	callstack 0
  3858                           
  3859 ;; *************** function _EUSART_TX_ASY_ISR *****************
  3860 ;; Defined at:
  3861 ;;		line 267 in file "MCAL_Layer/EUSART/hal_usart.c"
  3862 ;; Parameters:    Size  Location     Type
  3863 ;;		None
  3864 ;; Auto vars:     Size  Location     Type
  3865 ;;		None
  3866 ;; Return value:  Size  Location     Type
  3867 ;;                  1    wreg      void 
  3868 ;; Registers used:
  3869 ;;		None
  3870 ;; Tracked objects:
  3871 ;;		On entry : 0/0
  3872 ;;		On exit  : 0/0
  3873 ;;		Unchanged: 0/0
  3874 ;; Data sizes:     COMRAM   BANK0   BANK1   BANK2   BANK3   BANK4   BANK5   BANK6   BANK7   BANK8   BANK9  BANK10  BANK1
      +1  BANK12  BANK13  BANK14  BANK15
  3875 ;;      Params:         0       0       0       0       0       0       0       0       0       0       0       0       
      +0       0       0       0       0
  3876 ;;      Locals:         0       0       0       0       0       0       0       0       0       0       0       0       
      +0       0       0       0       0
  3877 ;;      Temps:          0       0       0       0       0       0       0       0       0       0       0       0       
      +0       0       0       0       0
  3878 ;;      Totals:         0       0       0       0       0       0       0       0       0       0       0       0       
      +0       0       0       0       0
  3879 ;;Total ram usage:        0 bytes
  3880 ;; Hardware stack levels used: 1
  3881 ;; This function calls:
  3882 ;;		Nothing
  3883 ;; This function is called by:
  3884 ;;		_InterruptManager
  3885 ;; This function uses a non-reentrant model
  3886 ;;
  3887                           
  3888                           	psect	text29
  3889   001DCE                     __ptext29:
  3890                           	callstack 0
  3891   001DCE                     _EUSART_TX_ASY_ISR:
  3892                           	callstack 25
  3893   001DCE                     
  3894                           ;MCAL_Layer/EUSART/hal_usart.c: 268: (PIE1bits.TXIE =0);
  3895   001DCE  989D               	bcf	157,4,c	;volatile
  3896   001DD0  0012               	return		;funcret
  3897   001DD2                     __end_of_EUSART_TX_ASY_ISR:
  3898                           	callstack 0
  3899                           
  3900 ;; *************** function _EUSART_RX_ASY_ISR *****************
  3901 ;; Defined at:
  3902 ;;		line 276 in file "MCAL_Layer/EUSART/hal_usart.c"
  3903 ;; Parameters:    Size  Location     Type
  3904 ;;		None
  3905 ;; Auto vars:     Size  Location     Type
  3906 ;;		None
  3907 ;; Return value:  Size  Location     Type
  3908 ;;                  1    wreg      void 
  3909 ;; Registers used:
  3910 ;;		wreg, status,2, status,0
  3911 ;; Tracked objects:
  3912 ;;		On entry : 0/0
  3913 ;;		On exit  : 0/0
  3914 ;;		Unchanged: 0/0
  3915 ;; Data sizes:     COMRAM   BANK0   BANK1   BANK2   BANK3   BANK4   BANK5   BANK6   BANK7   BANK8   BANK9  BANK10  BANK1
      +1  BANK12  BANK13  BANK14  BANK15
  3916 ;;      Params:         0       0       0       0       0       0       0       0       0       0       0       0       
      +0       0       0       0       0
  3917 ;;      Locals:         0       0       0       0       0       0       0       0       0       0       0       0       
      +0       0       0       0       0
  3918 ;;      Temps:          0       0       0       0       0       0       0       0       0       0       0       0       
      +0       0       0       0       0
  3919 ;;      Totals:         0       0       0       0       0       0       0       0       0       0       0       0       
      +0       0       0       0       0
  3920 ;;Total ram usage:        0 bytes
  3921 ;; Hardware stack levels used: 1
  3922 ;; This function calls:
  3923 ;;		Nothing
  3924 ;; This function is called by:
  3925 ;;		_InterruptManager
  3926 ;; This function uses a non-reentrant model
  3927 ;;
  3928                           
  3929                           	psect	text30
  3930   001DDE                     __ptext30:
  3931                           	callstack 0
  3932   001DDE                     _EUSART_RX_ASY_ISR:
  3933                           	callstack 25
  3934   001DDE  0012               	return		;funcret
  3935   001DE0                     __end_of_EUSART_RX_ASY_ISR:
  3936                           	callstack 0
  3937                           
  3938 ;; *************** function _CCP2_ISR *****************
  3939 ;; Defined at:
  3940 ;;		line 188 in file "MCAL_Layer/CPP1/hal_ccp.c"
  3941 ;; Parameters:    Size  Location     Type
  3942 ;;		None
  3943 ;; Auto vars:     Size  Location     Type
  3944 ;;		None
  3945 ;; Return value:  Size  Location     Type
  3946 ;;                  1    wreg      void 
  3947 ;; Registers used:
  3948 ;;		None
  3949 ;; Tracked objects:
  3950 ;;		On entry : 0/0
  3951 ;;		On exit  : 0/0
  3952 ;;		Unchanged: 0/0
  3953 ;; Data sizes:     COMRAM   BANK0   BANK1   BANK2   BANK3   BANK4   BANK5   BANK6   BANK7   BANK8   BANK9  BANK10  BANK1
      +1  BANK12  BANK13  BANK14  BANK15
  3954 ;;      Params:         0       0       0       0       0       0       0       0       0       0       0       0       
      +0       0       0       0       0
  3955 ;;      Locals:         0       0       0       0       0       0       0       0       0       0       0       0       
      +0       0       0       0       0
  3956 ;;      Temps:          0       0       0       0       0       0       0       0       0       0       0       0       
      +0       0       0       0       0
  3957 ;;      Totals:         0       0       0       0       0       0       0       0       0       0       0       0       
      +0       0       0       0       0
  3958 ;;Total ram usage:        0 bytes
  3959 ;; Hardware stack levels used: 1
  3960 ;; This function calls:
  3961 ;;		Nothing
  3962 ;; This function is called by:
  3963 ;;		_InterruptManager
  3964 ;; This function uses a non-reentrant model
  3965 ;;
  3966                           
  3967                           	psect	text31
  3968   001DD2                     __ptext31:
  3969                           	callstack 0
  3970   001DD2                     _CCP2_ISR:
  3971                           	callstack 25
  3972   001DD2                     
  3973                           ;MCAL_Layer/CPP1/hal_ccp.c: 189: (PIR2bits.CCP2IF = 0 );
  3974   001DD2  90A1               	bcf	161,0,c	;volatile
  3975   001DD4  0012               	return		;funcret
  3976   001DD6                     __end_of_CCP2_ISR:
  3977                           	callstack 0
  3978                           
  3979 ;; *************** function _CCP1_ISR *****************
  3980 ;; Defined at:
  3981 ;;		line 179 in file "MCAL_Layer/CPP1/hal_ccp.c"
  3982 ;; Parameters:    Size  Location     Type
  3983 ;;		None
  3984 ;; Auto vars:     Size  Location     Type
  3985 ;;		None
  3986 ;; Return value:  Size  Location     Type
  3987 ;;                  1    wreg      void 
  3988 ;; Registers used:
  3989 ;;		None
  3990 ;; Tracked objects:
  3991 ;;		On entry : 0/0
  3992 ;;		On exit  : 0/0
  3993 ;;		Unchanged: 0/0
  3994 ;; Data sizes:     COMRAM   BANK0   BANK1   BANK2   BANK3   BANK4   BANK5   BANK6   BANK7   BANK8   BANK9  BANK10  BANK1
      +1  BANK12  BANK13  BANK14  BANK15
  3995 ;;      Params:         0       0       0       0       0       0       0       0       0       0       0       0       
      +0       0       0       0       0
  3996 ;;      Locals:         0       0       0       0       0       0       0       0       0       0       0       0       
      +0       0       0       0       0
  3997 ;;      Temps:          0       0       0       0       0       0       0       0       0       0       0       0       
      +0       0       0       0       0
  3998 ;;      Totals:         0       0       0       0       0       0       0       0       0       0       0       0       
      +0       0       0       0       0
  3999 ;;Total ram usage:        0 bytes
  4000 ;; Hardware stack levels used: 1
  4001 ;; This function calls:
  4002 ;;		Nothing
  4003 ;; This function is called by:
  4004 ;;		_InterruptManager
  4005 ;; This function uses a non-reentrant model
  4006 ;;
  4007                           
  4008                           	psect	text32
  4009   001DD6                     __ptext32:
  4010                           	callstack 0
  4011   001DD6                     _CCP1_ISR:
  4012                           	callstack 25
  4013   001DD6                     
  4014                           ;MCAL_Layer/CPP1/hal_ccp.c: 180: (PIR1bits.CCP1IF = 0 );
  4015   001DD6  949E               	bcf	158,2,c	;volatile
  4016   001DD8  0012               	return		;funcret
  4017   001DDA                     __end_of_CCP1_ISR:
  4018                           	callstack 0
  4019                           
  4020 ;; *************** function _ADC_ISR *****************
  4021 ;; Defined at:
  4022 ;;		line 248 in file "MCAL_Layer/ADC/hal_adc.c"
  4023 ;; Parameters:    Size  Location     Type
  4024 ;;		None
  4025 ;; Auto vars:     Size  Location     Type
  4026 ;;		None
  4027 ;; Return value:  Size  Location     Type
  4028 ;;                  1    wreg      void 
  4029 ;; Registers used:
  4030 ;;		None
  4031 ;; Tracked objects:
  4032 ;;		On entry : 0/0
  4033 ;;		On exit  : 0/0
  4034 ;;		Unchanged: 0/0
  4035 ;; Data sizes:     COMRAM   BANK0   BANK1   BANK2   BANK3   BANK4   BANK5   BANK6   BANK7   BANK8   BANK9  BANK10  BANK1
      +1  BANK12  BANK13  BANK14  BANK15
  4036 ;;      Params:         0       0       0       0       0       0       0       0       0       0       0       0       
      +0       0       0       0       0
  4037 ;;      Locals:         0       0       0       0       0       0       0       0       0       0       0       0       
      +0       0       0       0       0
  4038 ;;      Temps:          0       0       0       0       0       0       0       0       0       0       0       0       
      +0       0       0       0       0
  4039 ;;      Totals:         0       0       0       0       0       0       0       0       0       0       0       0       
      +0       0       0       0       0
  4040 ;;Total ram usage:        0 bytes
  4041 ;; Hardware stack levels used: 1
  4042 ;; This function calls:
  4043 ;;		Nothing
  4044 ;; This function is called by:
  4045 ;;		_InterruptManager
  4046 ;; This function uses a non-reentrant model
  4047 ;;
  4048                           
  4049                           	psect	text33
  4050   001DDA                     __ptext33:
  4051                           	callstack 0
  4052   001DDA                     _ADC_ISR:
  4053                           	callstack 25
  4054   001DDA                     
  4055                           ;MCAL_Layer/ADC/hal_adc.c: 249: (PIR1bits.ADIF = 0);
  4056   001DDA  9C9E               	bcf	158,6,c	;volatile
  4057   001DDC  0012               	return		;funcret
  4058   001DDE                     __end_of_ADC_ISR:
  4059                           	callstack 0
  4060                           
  4061                           	psect	rparam
  4062   000000                     
  4063                           	psect	temp
  4064   00007A                     btemp:
  4065                           	callstack 0
  4066   00007A                     	ds	1
  4067   000000                     int$flags	set	btemp
  4068   000000                     wtemp8	set	btemp+1
  4069   000000                     ttemp5	set	btemp+1
  4070   000000                     ttemp6	set	btemp+4
  4071   000000                     ttemp7	set	btemp+8
  4072                           
  4073                           	psect	config
  4074                           
  4075                           ; Padding undefined space
  4076   300000                     	org	3145728
  4077   300000  FF                 	db	255
  4078                           
  4079                           ;Config register CONFIG1H @ 0x300001
  4080                           ;	Oscillator Selection bits
  4081                           ;	OSC = HS, HS oscillator
  4082                           ;	Fail-Safe Clock Monitor Enable bit
  4083                           ;	FCMEN = OFF, Fail-Safe Clock Monitor disabled
  4084                           ;	Internal/External Oscillator Switchover bit
  4085                           ;	IESO = OFF, Oscillator Switchover mode disabled
  4086   300001                     	org	3145729
  4087   300001  02                 	db	2
  4088                           
  4089                           ;Config register CONFIG2L @ 0x300002
  4090                           ;	Power-up Timer Enable bit
  4091                           ;	PWRT = OFF, PWRT disabled
  4092                           ;	Brown-out Reset Enable bits
  4093                           ;	BOREN = OFF, Brown-out Reset disabled in hardware and software
  4094                           ;	Brown Out Reset Voltage bits
  4095                           ;	BORV = 1, 
  4096   300002                     	org	3145730
  4097   300002  09                 	db	9
  4098                           
  4099                           ;Config register CONFIG2H @ 0x300003
  4100                           ;	Watchdog Timer Enable bit
  4101                           ;	WDT = OFF, WDT disabled (control is placed on the SWDTEN bit)
  4102                           ;	Watchdog Timer Postscale Select bits
  4103                           ;	WDTPS = 32768, 1:32768
  4104   300003                     	org	3145731
  4105   300003  1E                 	db	30
  4106                           
  4107                           ; Padding undefined space
  4108   300004                     	org	3145732
  4109   300004  FF                 	db	255
  4110                           
  4111                           ;Config register CONFIG3H @ 0x300005
  4112                           ;	CCP2 MUX bit
  4113                           ;	CCP2MX = PORTC, CCP2 input/output is multiplexed with RC1
  4114                           ;	PORTB A/D Enable bit
  4115                           ;	PBADEN = OFF, PORTB<4:0> pins are configured as digital I/O on Reset
  4116                           ;	Low-Power Timer1 Oscillator Enable bit
  4117                           ;	LPT1OSC = OFF, Timer1 configured for higher power operation
  4118                           ;	MCLR Pin Enable bit
  4119                           ;	MCLRE = ON, MCLR pin enabled; RE3 input pin disabled
  4120   300005                     	org	3145733
  4121   300005  81                 	db	129
  4122                           
  4123                           ;Config register CONFIG4L @ 0x300006
  4124                           ;	Stack Full/Underflow Reset Enable bit
  4125                           ;	STVREN = ON, Stack full/underflow will cause Reset
  4126                           ;	Single-Supply ICSP Enable bit
  4127                           ;	LVP = OFF, Single-Supply ICSP disabled
  4128                           ;	Extended Instruction Set Enable bit
  4129                           ;	XINST = OFF, Instruction set extension and Indexed Addressing mode disabled (Legacy mo
      +                          de)
  4130                           ;	Background Debugger Enable bit
  4131                           ;	DEBUG = 0x1, unprogrammed default
  4132   300006                     	org	3145734
  4133   300006  81                 	db	129
  4134                           
  4135                           ; Padding undefined space
  4136   300007                     	org	3145735
  4137   300007  FF                 	db	255
  4138                           
  4139                           ;Config register CONFIG5L @ 0x300008
  4140                           ;	Code Protection bit
  4141                           ;	CP0 = OFF, Block 0 (000800-003FFFh) not code-protected
  4142                           ;	Code Protection bit
  4143                           ;	CP1 = OFF, Block 1 (004000-007FFFh) not code-protected
  4144                           ;	Code Protection bit
  4145                           ;	CP2 = OFF, Block 2 (008000-00BFFFh) not code-protected
  4146                           ;	Code Protection bit
  4147                           ;	CP3 = OFF, Block 3 (00C000-00FFFFh) not code-protected
  4148   300008                     	org	3145736
  4149   300008  0F                 	db	15
  4150                           
  4151                           ;Config register CONFIG5H @ 0x300009
  4152                           ;	Boot Block Code Protection bit
  4153                           ;	CPB = OFF, Boot block (000000-0007FFh) not code-protected
  4154                           ;	Data EEPROM Code Protection bit
  4155                           ;	CPD = OFF, Data EEPROM not code-protected
  4156   300009                     	org	3145737
  4157   300009  C0                 	db	192
  4158                           
  4159                           ;Config register CONFIG6L @ 0x30000A
  4160                           ;	Write Protection bit
  4161                           ;	WRT0 = OFF, Block 0 (000800-003FFFh) not write-protected
  4162                           ;	Write Protection bit
  4163                           ;	WRT1 = OFF, Block 1 (004000-007FFFh) not write-protected
  4164                           ;	Write Protection bit
  4165                           ;	WRT2 = OFF, Block 2 (008000-00BFFFh) not write-protected
  4166                           ;	Write Protection bit
  4167                           ;	WRT3 = OFF, Block 3 (00C000-00FFFFh) not write-protected
  4168   30000A                     	org	3145738
  4169   30000A  0F                 	db	15
  4170                           
  4171                           ;Config register CONFIG6H @ 0x30000B
  4172                           ;	Configuration Register Write Protection bit
  4173                           ;	WRTC = OFF, Configuration registers (300000-3000FFh) not write-protected
  4174                           ;	Boot Block Write Protection bit
  4175                           ;	WRTB = OFF, Boot Block (000000-0007FFh) not write-protected
  4176                           ;	Data EEPROM Write Protection bit
  4177                           ;	WRTD = OFF, Data EEPROM not write-protected
  4178   30000B                     	org	3145739
  4179   30000B  E0                 	db	224
  4180                           
  4181                           ;Config register CONFIG7L @ 0x30000C
  4182                           ;	Table Read Protection bit
  4183                           ;	EBTR0 = OFF, Block 0 (000800-003FFFh) not protected from table reads executed in other
      +                           blocks
  4184                           ;	Table Read Protection bit
  4185                           ;	EBTR1 = OFF, Block 1 (004000-007FFFh) not protected from table reads executed in other
      +                           blocks
  4186                           ;	Table Read Protection bit
  4187                           ;	EBTR2 = OFF, Block 2 (008000-00BFFFh) not protected from table reads executed in other
      +                           blocks
  4188                           ;	Table Read Protection bit
  4189                           ;	EBTR3 = OFF, Block 3 (00C000-00FFFFh) not protected from table reads executed in other
      +                           blocks
  4190   30000C                     	org	3145740
  4191   30000C  0F                 	db	15
  4192                           
  4193                           ;Config register CONFIG7H @ 0x30000D
  4194                           ;	Boot Block Table Read Protection bit
  4195                           ;	EBTRB = OFF, Boot Block (000000-0007FFh) not protected from table reads executed in ot
      +                          her blocks
  4196   30000D                     	org	3145741
  4197   30000D  40                 	db	64
  4198                           tosu	equ	0xFFF
  4199                           tosh	equ	0xFFE
  4200                           tosl	equ	0xFFD
  4201                           stkptr	equ	0xFFC
  4202                           pclatu	equ	0xFFB
  4203                           pclath	equ	0xFFA
  4204                           pcl	equ	0xFF9
  4205                           tblptru	equ	0xFF8
  4206                           tblptrh	equ	0xFF7
  4207                           tblptrl	equ	0xFF6
  4208                           tablat	equ	0xFF5
  4209                           prodh	equ	0xFF4
  4210                           prodl	equ	0xFF3
  4211                           indf0	equ	0xFEF
  4212                           postinc0	equ	0xFEE
  4213                           postdec0	equ	0xFED
  4214                           preinc0	equ	0xFEC
  4215                           plusw0	equ	0xFEB
  4216                           fsr0h	equ	0xFEA
  4217                           fsr0l	equ	0xFE9
  4218                           wreg	equ	0xFE8
  4219                           indf1	equ	0xFE7
  4220                           postinc1	equ	0xFE6
  4221                           postdec1	equ	0xFE5
  4222                           preinc1	equ	0xFE4
  4223                           plusw1	equ	0xFE3
  4224                           fsr1h	equ	0xFE2
  4225                           fsr1l	equ	0xFE1
  4226                           bsr	equ	0xFE0
  4227                           indf2	equ	0xFDF
  4228                           postinc2	equ	0xFDE
  4229                           postdec2	equ	0xFDD
  4230                           preinc2	equ	0xFDC
  4231                           plusw2	equ	0xFDB
  4232                           fsr2h	equ	0xFDA
  4233                           fsr2l	equ	0xFD9
  4234                           status	equ	0xFD8

Data Sizes:
    Strings     3
    Constant    12
    Data        41
    BSS         93
    Persistent  0
    Stack       0

Auto Spaces:
    Space          Size  Autos    Used
    COMRAM          126     14     121
    BANK0           128      0      27
    BANK1           256      0       0
    BANK2           256      0       0
    BANK3           256      0       0
    BANK4           256      0       0
    BANK5           256      0       0
    BANK6           256      0       0
    BANK7           256      0       0
    BANK8           256      0       0
    BANK9           256      0       0
    BANK10          256      0       0
    BANK11          256      0       0
    BANK12          256      0       0
    BANK13          256      0       0
    BANK14          256      0       0
    BANK15          128      0       0

Pointer List with Targets:

    Adc_Get_conversion_result@adc_obj$ACD_INTERRUPT_HANDLER	PTR FTN()void  size(2) Largest target is 0

    ADC_INIT@adc_obj$ACD_INTERRUPT_HANDLER	PTR FTN()void  size(2) Largest target is 0

    ADC_INTERRUPT_HANDLERF	PTR FTN()void  size(2) Largest target is 1
		 -> NULL(), 

    adc_select_format@adc_obj$ACD_INTERRUPT_HANDLER	PTR FTN()void  size(2) Largest target is 0

    adc_select_Voltage@adc_obj$ACD_INTERRUPT_HANDLER	PTR FTN()void  size(2) Largest target is 0

    capture_is_ready@_ccp$CCP1_INTERRUPT_HANDLER	PTR FTN()void  size(2) Largest target is 0
		 -> NULL(NULL[0]), 

    capture_is_ready@_ccp$CCP2_INTERRUPT_HANDLER	PTR FTN()void  size(2) Largest target is 0
		 -> NULL(NULL[0]), 

    capture_read_value@_ccp$CCP1_INTERRUPT_HANDLER	PTR FTN()void  size(2) Largest target is 0
		 -> NULL(NULL[0]), 

    capture_read_value@_ccp$CCP2_INTERRUPT_HANDLER	PTR FTN()void  size(2) Largest target is 0
		 -> NULL(NULL[0]), 

    CCP1_INTERRUPT_HANDLERF	PTR FTN()void  size(2) Largest target is 1
		 -> NULL(), NULL(NULL[0]), 

    CCP2_INTERRUPT_HANDLERF	PTR FTN()void  size(2) Largest target is 1
		 -> NULL(), NULL(NULL[0]), 

    CCP_DEINIt@_ccp$CCP1_INTERRUPT_HANDLER	PTR FTN()void  size(2) Largest target is 0
		 -> NULL(NULL[0]), 

    CCP_DEINIt@_ccp$CCP2_INTERRUPT_HANDLER	PTR FTN()void  size(2) Largest target is 0
		 -> NULL(NULL[0]), 

    CCP_INIt@_ccp	PTR const struct . size(1) Largest target is 11
		 -> ccp_obj(BANK0[11]), 

    CCP_INIt@_ccp$CCP1_INTERRUPT_HANDLER	PTR FTN()void  size(2) Largest target is 0
		 -> NULL(NULL[0]), 

    CCP_INIt@_ccp$CCP2_INTERRUPT_HANDLER	PTR FTN()void  size(2) Largest target is 0
		 -> NULL(NULL[0]), 

    ccp_interrupt@_ccp	PTR const struct . size(1) Largest target is 11
		 -> ccp_obj(BANK0[11]), 

    ccp_interrupt@_ccp$CCP1_INTERRUPT_HANDLER	PTR FTN()void  size(2) Largest target is 0
		 -> NULL(NULL[0]), 

    ccp_interrupt@_ccp$CCP2_INTERRUPT_HANDLER	PTR FTN()void  size(2) Largest target is 0
		 -> NULL(NULL[0]), 

    ccp_obj$CCP1_INTERRUPT_HANDLER	PTR FTN()void  size(2) Largest target is 0
		 -> NULL(NULL[0]), 

    ccp_obj$CCP2_INTERRUPT_HANDLER	PTR FTN()void  size(2) Largest target is 0
		 -> NULL(NULL[0]), 

    configue_timer_mode@TMR$TIMER3_INTERRUPT_HANDLER	PTR FTN()void  size(2) Largest target is 0

    configure_mode@_ccp	PTR const struct . size(1) Largest target is 11
		 -> ccp_obj(BANK0[11]), 

    configure_mode@_ccp$CCP1_INTERRUPT_HANDLER	PTR FTN()void  size(2) Largest target is 0
		 -> NULL(NULL[0]), 

    configure_mode@_ccp$CCP2_INTERRUPT_HANDLER	PTR FTN()void  size(2) Largest target is 0
		 -> NULL(NULL[0]), 

    EUSART_ASYC_Rx_init@_eusa$EUSART_FRAMING_ERROR_INTERRUPT_HANDLER	PTR FTN()void  size(2) Largest target is 0

    EUSART_ASYC_Rx_init@_eusa$EUSART_OVERRUN_ERROR_INTERRUPT_HANDLER	PTR FTN()void  size(2) Largest target is 0

    EUSART_ASYC_Rx_init@_eusa$EUSART_RX_INTERRUPT_HANDLER	PTR FTN()void  size(2) Largest target is 0

    EUSART_ASYC_Rx_init@_eusa$EUSART_TX_INTERRUPT_HANDLER	PTR FTN()void  size(2) Largest target is 0

    EUSART_ASYC_Tx_init@_eusa$EUSART_FRAMING_ERROR_INTERRUPT_HANDLER	PTR FTN()void  size(2) Largest target is 0

    EUSART_ASYC_Tx_init@_eusa$EUSART_OVERRUN_ERROR_INTERRUPT_HANDLER	PTR FTN()void  size(2) Largest target is 0

    EUSART_ASYC_Tx_init@_eusa$EUSART_RX_INTERRUPT_HANDLER	PTR FTN()void  size(2) Largest target is 0

    EUSART_ASYC_Tx_init@_eusa$EUSART_TX_INTERRUPT_HANDLER	PTR FTN()void  size(2) Largest target is 0

    eusart_baudrate_configuration@_eusa$EUSART_FRAMING_ERROR_INTERRUPT_HANDLER	PTR FTN()void  size(2) Largest target is 0

    eusart_baudrate_configuration@_eusa$EUSART_OVERRUN_ERROR_INTERRUPT_HANDLER	PTR FTN()void  size(2) Largest target is 0

    eusart_baudrate_configuration@_eusa$EUSART_RX_INTERRUPT_HANDLER	PTR FTN()void  size(2) Largest target is 0

    eusart_baudrate_configuration@_eusa$EUSART_TX_INTERRUPT_HANDLER	PTR FTN()void  size(2) Largest target is 0

    EUSART_FRAMING_ERROR_INTERRUPT_HANDLERF	PTR FTN()void  size(2) Largest target is 1
		 -> NULL(), 

    EUSART_OVERRUN_ERROR_INTERRUPT_HANDLERF	PTR FTN()void  size(2) Largest target is 1
		 -> NULL(), 

    EUSART_RX_INTERRUPT_HANDLERF	PTR FTN()void  size(2) Largest target is 1
		 -> NULL(), 

    EUSART_TX_INTERRUPT_HANDLERF	PTR FTN()void  size(2) Largest target is 1
		 -> NULL(), 

    f$.$buffer	PTR unsigned char  size(2) Largest target is 0

    f$.$source	PTR const unsigned char  size(2) Largest target is 0

    gpio_pin_direction_intialize@__pin_t	PTR const struct . size(1) Largest target is 11
		 -> ccp_obj(BANK0[11]), ccp_obj$ccp_pin(BANK0[1]), led_intalize@obj(COMRAM[1]), relay_initalize@obj(COMRAM[1]), 
		 -> spi_master_mode_configuration@SDI(COMRAM[1]), spi_master_mode_configuration@SDO(COMRAM[1]), spi_master_mode_configuration@SKL(COMRAM[1]), spi_slave_mode_configuration@SDI(COMRAM[1]), 
		 -> spi_slave_mode_configuration@SDO(COMRAM[1]), spi_slave_mode_configuration@SKL(COMRAM[1]), spi_slave_mode_configuration@SS_PIN(COMRAM[1]), 

    gpio_pin_intialize@_pin_t	PTR struct . size(1) Largest target is 11
		 -> ccp_obj(BANK0[11]), ccp_obj$ccp_pin(BANK0[1]), led_intalize@obj(COMRAM[1]), relay_initalize@obj(COMRAM[1]), 
		 -> spi_master_mode_configuration@SDI(COMRAM[1]), spi_master_mode_configuration@SDO(COMRAM[1]), spi_master_mode_configuration@SKL(COMRAM[1]), spi_slave_mode_configuration@SDI(COMRAM[1]), 
		 -> spi_slave_mode_configuration@SDO(COMRAM[1]), spi_slave_mode_configuration@SKL(COMRAM[1]), spi_slave_mode_configuration@SS_PIN(COMRAM[1]), 

    gpio_pin_write_logic@_pin_t	PTR const struct . size(1) Largest target is 11
		 -> ccp_obj(BANK0[11]), ccp_obj$ccp_pin(BANK0[1]), led_intalize@obj(COMRAM[1]), led_off@obj(COMRAM[1]), 
		 -> led_on@obj(COMRAM[1]), relay_initalize@obj(COMRAM[1]), relay_off@obj(COMRAM[1]), relay_on@obj(COMRAM[1]), 
		 -> spi_master_mode_configuration@SDI(COMRAM[1]), spi_master_mode_configuration@SDO(COMRAM[1]), spi_master_mode_configuration@SKL(COMRAM[1]), spi_slave_mode_configuration@SDI(COMRAM[1]), 
		 -> spi_slave_mode_configuration@SDO(COMRAM[1]), spi_slave_mode_configuration@SKL(COMRAM[1]), spi_slave_mode_configuration@SS_PIN(COMRAM[1]), 

    I2C_INTERRUPT_HANDLERF	PTR FTN()void  size(2) Largest target is 1
		 -> NULL(), 

    I2C_Receive_Overflow_IndicatoR_HANDLERF	PTR FTN()void  size(2) Largest target is 1
		 -> NULL(), 

    I2C_Write_Collision_HANDLERF	PTR FTN()void  size(2) Largest target is 1
		 -> NULL(), 

    INT0_InterruptHandeler	PTR FTN()void  size(2) Largest target is 1
		 -> NULL(), 

    int1$TIMER1_INTERRUPT_HANDLER	PTR FTN()void  size(2) Largest target is 0
		 -> NULL(NULL[0]), 

    INT1_InterruptHandeler	PTR FTN()void  size(2) Largest target is 1
		 -> NULL(), 

    INT2_InterruptHandeler	PTR FTN()void  size(2) Largest target is 1
		 -> NULL(), 

    Interrupt_INTx_Clear_Flag@init_obj$EXT_InterruptHandler	PTR FTN()void  size(2) Largest target is 0

    Interrupt_INTx_Disable@init_obj$EXT_InterruptHandler	PTR FTN()void  size(2) Largest target is 0

    Interrupt_INTx_Edge_init@init_obj$EXT_InterruptHandler	PTR FTN()void  size(2) Largest target is 0

    Interrupt_INTx_Enable@init_obj$EXT_InterruptHandler	PTR FTN()void  size(2) Largest target is 0

    Interrupt_INTx_Pin_init@init_obj$EXT_InterruptHandler	PTR FTN()void  size(2) Largest target is 0

    Interrupt_INTx_SetInterruptHandeler@init_obj$EXT_InterruptHandler	PTR FTN()void  size(2) Largest target is 0

    Interrupt_RBx_Init@init_obj$EXT_InterruptHandler_High	PTR FTN()void  size(2) Largest target is 0

    Interrupt_RBx_Init@init_obj$EXT_InterruptHandler_Low	PTR FTN()void  size(2) Largest target is 0

    Interrupt_RBx_Pin_init@init_obj$EXT_InterruptHandler_High	PTR FTN()void  size(2) Largest target is 0

    Interrupt_RBx_Pin_init@init_obj$EXT_InterruptHandler_Low	PTR FTN()void  size(2) Largest target is 0

    lat_registers	PTR volatile unsigned char [5] size(2) Largest target is 1
		 -> LATA(BITBIGSFRlllll[1]), LATB(BITBIGSFRllllh[1]), LATC(BITBIGSFRllllh[1]), LATD(BITBIGSFRllllh[1]), 
		 -> LATE(BITBIGSFRllllh[1]), 

    MODE_configure@hal_timer1$F3585@TMR	PTR const struct . size(1) Largest target is 7
		 -> int1(COMRAM[7]), 

    MODE_configure@hal_timer1$F3585@TMR$TIMER1_INTERRUPT_HANDLER	PTR FTN()void  size(2) Largest target is 0
		 -> NULL(NULL[0]), 

    MODE_configure@TMR$TIMER0_INTERRUPT_HANDLER	PTR FTN()void  size(2) Largest target is 0

    MSSP_12C_Interrupt_configuration@i2c$I2C_INTERRUPT_HANDLER	PTR FTN()void  size(2) Largest target is 0

    MSSP_12C_Interrupt_configuration@i2c$I2C_Receive_Overflow_IndicatoR_HANDLER	PTR FTN()void  size(2) Largest target is 0

    MSSP_12C_Interrupt_configuration@i2c$I2C_Write_Collision_HANDLER	PTR FTN()void  size(2) Largest target is 0

    MSSP_I2c_MODE_Init@i2c$I2C_INTERRUPT_HANDLER	PTR FTN()void  size(2) Largest target is 0

    MSSP_I2c_MODE_Init@i2c$I2C_Receive_Overflow_IndicatoR_HANDLER	PTR FTN()void  size(2) Largest target is 0

    MSSP_I2c_MODE_Init@i2c$I2C_Write_Collision_HANDLER	PTR FTN()void  size(2) Largest target is 0

    MSSP_SPI_INTERRUPT_HANDLERF	PTR FTN()void  size(2) Largest target is 1
		 -> NULL(), 

    OSC_configure@TMR	PTR const struct . size(1) Largest target is 7
		 -> int1(COMRAM[7]), 

    OSC_configure@TMR$TIMER1_INTERRUPT_HANDLER	PTR FTN()void  size(2) Largest target is 0
		 -> NULL(NULL[0]), 

    port_registers	PTR volatile unsigned char [5] size(2) Largest target is 1
		 -> PORTA(BITBIGSFRlllll[1]), PORTB(BITBIGSFRlllll[1]), PORTC(BITBIGSFRlllll[1]), PORTD(BITBIGSFRlllll[1]), 
		 -> PORTE(BITBIGSFRlllll[1]), 

    Prescaler_configure@TMR$TIMER0_INTERRUPT_HANDLER	PTR FTN()void  size(2) Largest target is 0

    RB4_InterruptHandeler_High	PTR FTN()void  size(2) Largest target is 1
		 -> NULL(), 

    RB4_InterruptHandeler_Low	PTR FTN()void  size(2) Largest target is 1
		 -> NULL(), 

    RB5_InterruptHandeler_High	PTR FTN()void  size(2) Largest target is 1
		 -> NULL(), 

    RB5_InterruptHandeler_Low	PTR FTN()void  size(2) Largest target is 1
		 -> NULL(), 

    RB6_InterruptHandeler_High	PTR FTN()void  size(2) Largest target is 1
		 -> NULL(), 

    RB6_InterruptHandeler_Low	PTR FTN()void  size(2) Largest target is 1
		 -> NULL(), 

    RB7_InterruptHandeler_High	PTR FTN()void  size(2) Largest target is 1
		 -> NULL(), 

    RB7_InterruptHandeler_Low	PTR FTN()void  size(2) Largest target is 1
		 -> NULL(), 

    register_configure@hal_timer1$F3591@TMR	PTR const struct . size(1) Largest target is 7
		 -> int1(COMRAM[7]), 

    register_configure@hal_timer1$F3591@TMR$TIMER1_INTERRUPT_HANDLER	PTR FTN()void  size(2) Largest target is 0
		 -> NULL(NULL[0]), 

    register_configure@hal_timer3$F3954@TMR$TIMER3_INTERRUPT_HANDLER	PTR FTN()void  size(2) Largest target is 0

    register_configure@TMR$TIMER0_INTERRUPT_HANDLER	PTR FTN()void  size(2) Largest target is 0

    S1080$CCP1_INTERRUPT_HANDLER	PTR FTN()void  size(2) Largest target is 0
		 -> NULL(NULL[0]), 

    S1080$CCP2_INTERRUPT_HANDLER	PTR FTN()void  size(2) Largest target is 0
		 -> NULL(NULL[0]), 

    S1661$EUSART_FRAMING_ERROR_INTERRUPT_HANDLER	PTR FTN()void  size(2) Largest target is 0

    S1661$EUSART_OVERRUN_ERROR_INTERRUPT_HANDLER	PTR FTN()void  size(2) Largest target is 0

    S1661$EUSART_RX_INTERRUPT_HANDLER	PTR FTN()void  size(2) Largest target is 0

    S1661$EUSART_TX_INTERRUPT_HANDLER	PTR FTN()void  size(2) Largest target is 0

    S2290$EXT_InterruptHandler	PTR FTN()void  size(2) Largest target is 0

    S2328$EXT_InterruptHandler_High	PTR FTN()void  size(2) Largest target is 0

    S2328$EXT_InterruptHandler_Low	PTR FTN()void  size(2) Largest target is 0

    S2924$I2C_INTERRUPT_HANDLER	PTR FTN()void  size(2) Largest target is 0

    S2924$I2C_Receive_Overflow_IndicatoR_HANDLER	PTR FTN()void  size(2) Largest target is 0

    S2924$I2C_Write_Collision_HANDLER	PTR FTN()void  size(2) Largest target is 0

    S3354$TIMER0_INTERRUPT_HANDLER	PTR FTN()void  size(2) Largest target is 0

    S3524$TIMER1_INTERRUPT_HANDLER	PTR FTN()void  size(2) Largest target is 0
		 -> NULL(NULL[0]), 

    S3770$TIMER2_INTERRUPT_HANDLER	PTR FTN()void  size(2) Largest target is 0

    S3904$TIMER3_INTERRUPT_HANDLER	PTR FTN()void  size(2) Largest target is 0

    S4198$MSSP_SPI_INTERRUPT_HANDLER	PTR FTN()void  size(2) Largest target is 0

    S4961$buffer	PTR unsigned char  size(2) Largest target is 0

    S4961$source	PTR const unsigned char  size(2) Largest target is 0

    S658$ACD_INTERRUPT_HANDLER	PTR FTN()void  size(2) Largest target is 0

    selected_timer@_ccp	PTR const struct . size(1) Largest target is 11
		 -> ccp_obj(BANK0[11]), 

    selected_timer@_ccp$CCP1_INTERRUPT_HANDLER	PTR FTN()void  size(2) Largest target is 0
		 -> NULL(NULL[0]), 

    selected_timer@_ccp$CCP2_INTERRUPT_HANDLER	PTR FTN()void  size(2) Largest target is 0
		 -> NULL(NULL[0]), 

    sp__memset	PTR void  size(2) Largest target is 0

    Spi_Init@spi$MSSP_SPI_INTERRUPT_HANDLER	PTR FTN()void  size(2) Largest target is 0

    spi_interrupt_configuration@spi$MSSP_SPI_INTERRUPT_HANDLER	PTR FTN()void  size(2) Largest target is 0

    spi_slave_mode_configuration@spi$MSSP_SPI_INTERRUPT_HANDLER	PTR FTN()void  size(2) Largest target is 0

    TIMER0_INTERRUPPT	PTR FTN()void  size(2) Largest target is 1
		 -> NULL(), 

    TIMER1_INTERRUPPT_HANDLERF	PTR FTN()void  size(2) Largest target is 1
		 -> NULL(), NULL(NULL[0]), 

    TIMER3_INTERRUPT_HANDLERF	PTR FTN()void  size(2) Largest target is 1
		 -> NULL(), 

    TMR0_Init@TMR$TIMER0_INTERRUPT_HANDLER	PTR FTN()void  size(2) Largest target is 0

    TMR1_Init@TMR	PTR const struct . size(1) Largest target is 7
		 -> int1(COMRAM[7]), 

    TMR1_Init@TMR$TIMER1_INTERRUPT_HANDLER	PTR FTN()void  size(2) Largest target is 0
		 -> NULL(NULL[0]), 

    TMR2_Init@TMR$TIMER2_INTERRUPT_HANDLER	PTR FTN()void  size(2) Largest target is 0

    TMR2_INTERRUPT_HANDLER	PTR FTN()void  size(2) Largest target is 1
		 -> NULL(), 

    TMR3_Init@TMR$TIMER3_INTERRUPT_HANDLER	PTR FTN()void  size(2) Largest target is 0

    tris_registers	PTR volatile unsigned char [5] size(2) Largest target is 1
		 -> TRISA(BITBIGSFRlllll[1]), TRISB(ABS[1]), TRISC(SFR[1]), TRISD(ABS[1]), 
		 -> TRISE(ABS[1]), 

    vfprintf$0	PTR struct _IO_FILE size(1) Largest target is 12
		 -> sprintf@f(COMRAM[12]), 

    vfprintf$1	PTR const unsigned char  size(1) Largest target is 3
		 -> STR_1(CODE[3]), STR_2(CODE[3]), STR_3(CODE[3]), 

    vfprintf$2	PTR PTR void  size(1) Largest target is 1
		 -> sprintf@ap(COMRAM[1]), 


Critical Paths under _main in COMRAM

    _interrupt_init1->_TMR1_Init
    _TMR1_Init->_MODE_configure@hal_timer1$F3585
    _TMR1_Init->_OSC_configure
    _TMR1_Init->_register_configure@hal_timer1$F3591
    _ccp_init->_CCP_INIt
    _CCP_INIt->_gpio_pin_intialize
    _gpio_pin_intialize->_gpio_pin_write_logic
    _configure_mode->_selected_timer

Critical Paths under _InterruptManager in COMRAM

    _InterruptManager->_RB4_ISR
    _InterruptManager->_RB5_ISR
    _InterruptManager->_RB6_ISR
    _InterruptManager->_RB7_ISR

Critical Paths under _main in BANK0

    None.

Critical Paths under _InterruptManager in BANK0

    None.

Critical Paths under _main in BANK1

    None.

Critical Paths under _InterruptManager in BANK1

    None.

Critical Paths under _main in BANK2

    None.

Critical Paths under _InterruptManager in BANK2

    None.

Critical Paths under _main in BANK3

    None.

Critical Paths under _InterruptManager in BANK3

    None.

Critical Paths under _main in BANK4

    None.

Critical Paths under _InterruptManager in BANK4

    None.

Critical Paths under _main in BANK5

    None.

Critical Paths under _InterruptManager in BANK5

    None.

Critical Paths under _main in BANK6

    None.

Critical Paths under _InterruptManager in BANK6

    None.

Critical Paths under _main in BANK7

    None.

Critical Paths under _InterruptManager in BANK7

    None.

Critical Paths under _main in BANK8

    None.

Critical Paths under _InterruptManager in BANK8

    None.

Critical Paths under _main in BANK9

    None.

Critical Paths under _InterruptManager in BANK9

    None.

Critical Paths under _main in BANK10

    None.

Critical Paths under _InterruptManager in BANK10

    None.

Critical Paths under _main in BANK11

    None.

Critical Paths under _InterruptManager in BANK11

    None.

Critical Paths under _main in BANK12

    None.

Critical Paths under _InterruptManager in BANK12

    None.

Critical Paths under _main in BANK13

    None.

Critical Paths under _InterruptManager in BANK13

    None.

Critical Paths under _main in BANK14

    None.

Critical Paths under _InterruptManager in BANK14

    None.

Critical Paths under _main in BANK15

    None.

Critical Paths under _InterruptManager in BANK15

    None.

Call Graph Tables:

 ---------------------------------------------------------------------------------
 (Depth) Function   	        Calls       Base Space   Used Autos Params    Refs
 ---------------------------------------------------------------------------------
 (0) _main                                                 0     0      0    9275
                           _ccp_init
                    _interrupt_init1
 ---------------------------------------------------------------------------------
 (1) _interrupt_init1                                      0     0      0     686
                          _TMR1_Init
 ---------------------------------------------------------------------------------
 (2) _TMR1_Init                                            4     3      1     686
                                              2 COMRAM     3     2      1
    _MODE_configure@hal_timer1$F3585
                      _OSC_configure
_register_configure@hal_timer1$F3591
 ---------------------------------------------------------------------------------
 (3) _register_configure@hal_timer1$F3591                  1     0      1     120
                                              1 COMRAM     1     0      1
 ---------------------------------------------------------------------------------
 (3) _OSC_configure                                        1     0      1     120
                                              1 COMRAM     1     0      1
 ---------------------------------------------------------------------------------
 (3) _MODE_configure@hal_timer1$F3585                      1     0      1     164
                                              1 COMRAM     1     0      1
 ---------------------------------------------------------------------------------
 (1) _ccp_init                                             0     0      0    8589
                           _CCP_INIt
 ---------------------------------------------------------------------------------
 (2) _CCP_INIt                                             3     2      1    8589
                                             12 COMRAM     2     1      1
                      _ccp_interrupt
                     _configure_mode
                 _gpio_pin_intialize
 ---------------------------------------------------------------------------------
 (3) _gpio_pin_intialize                                   3     2      1    7410
                                              9 COMRAM     3     2      1
       _gpio_pin_direction_intialize
               _gpio_pin_write_logic
 ---------------------------------------------------------------------------------
 (4) _gpio_pin_write_logic                                 8     6      2    4891
                                              1 COMRAM     8     6      2
 ---------------------------------------------------------------------------------
 (4) _gpio_pin_direction_intialize                         7     6      1     635
                                              1 COMRAM     7     6      1
 ---------------------------------------------------------------------------------
 (3) _configure_mode                                       3     2      1     798
                                              3 COMRAM     3     2      1
                     _selected_timer
 ---------------------------------------------------------------------------------
 (4) _selected_timer                                       2     1      1     370
                                              1 COMRAM     2     1      1
 ---------------------------------------------------------------------------------
 (3) _ccp_interrupt                                        1     0      1     164
                                              1 COMRAM     1     0      1
 ---------------------------------------------------------------------------------
 Estimated maximum stack depth 4
 ---------------------------------------------------------------------------------
 (Depth) Function   	        Calls       Base Space   Used Autos Params    Refs
 ---------------------------------------------------------------------------------
 (5) _InterruptManager                                     0     0      0     120
                            _ADC_ISR
                           _CCP1_ISR
                           _CCP2_ISR
                  _EUSART_RX_ASY_ISR
                  _EUSART_TX_ASY_ISR
              _I2C_BUS_COLLISION_ISR
                  _I2C_MODULE_TR_ISR
                           _INT0_ISR
                           _INT1_ISR
                           _INT2_ISR
                       _MSSP_Spi_ISR
                            _RB4_ISR
                            _RB5_ISR
                            _RB6_ISR
                            _RB7_ISR
                           _TMR0_ISR
                           _TMR1_ISR
                           _TMR2_ISR
                           _TMR3_ISR
 ---------------------------------------------------------------------------------
 (6) _TMR3_ISR                                             0     0      0       0
 ---------------------------------------------------------------------------------
 (6) _TMR2_ISR                                             0     0      0       0
 ---------------------------------------------------------------------------------
 (6) _TMR1_ISR                                             0     0      0       0
 ---------------------------------------------------------------------------------
 (6) _TMR0_ISR                                             0     0      0       0
 ---------------------------------------------------------------------------------
 (6) _RB7_ISR                                              1     1      0      30
                                              0 COMRAM     1     1      0
 ---------------------------------------------------------------------------------
 (6) _RB6_ISR                                              1     1      0      30
                                              0 COMRAM     1     1      0
 ---------------------------------------------------------------------------------
 (6) _RB5_ISR                                              1     1      0      30
                                              0 COMRAM     1     1      0
 ---------------------------------------------------------------------------------
 (6) _RB4_ISR                                              1     1      0      30
                                              0 COMRAM     1     1      0
 ---------------------------------------------------------------------------------
 (6) _MSSP_Spi_ISR                                         0     0      0       0
 ---------------------------------------------------------------------------------
 (6) _INT2_ISR                                             0     0      0       0
 ---------------------------------------------------------------------------------
 (6) _INT1_ISR                                             0     0      0       0
 ---------------------------------------------------------------------------------
 (6) _INT0_ISR                                             0     0      0       0
 ---------------------------------------------------------------------------------
 (6) _I2C_MODULE_TR_ISR                                    0     0      0       0
 ---------------------------------------------------------------------------------
 (6) _I2C_BUS_COLLISION_ISR                                0     0      0       0
 ---------------------------------------------------------------------------------
 (6) _EUSART_TX_ASY_ISR                                    0     0      0       0
 ---------------------------------------------------------------------------------
 (6) _EUSART_RX_ASY_ISR                                    0     0      0       0
 ---------------------------------------------------------------------------------
 (6) _CCP2_ISR                                             0     0      0       0
 ---------------------------------------------------------------------------------
 (6) _CCP1_ISR                                             0     0      0       0
 ---------------------------------------------------------------------------------
 (6) _ADC_ISR                                              0     0      0       0
 ---------------------------------------------------------------------------------
 Estimated maximum stack depth 6
 ---------------------------------------------------------------------------------

 Call Graph Graphs:

 _main (ROOT)
   _ccp_init
     _CCP_INIt
       _ccp_interrupt
       _configure_mode
         _selected_timer
       _gpio_pin_intialize
         _gpio_pin_direction_intialize
         _gpio_pin_write_logic
   _interrupt_init1
     _TMR1_Init
       _MODE_configure@hal_timer1$F3585
       _OSC_configure
       _register_configure@hal_timer1$F3591

 _InterruptManager (ROOT)
   _ADC_ISR
   _CCP1_ISR
   _CCP2_ISR
   _EUSART_RX_ASY_ISR
   _EUSART_TX_ASY_ISR
   _I2C_BUS_COLLISION_ISR
   _I2C_MODULE_TR_ISR
   _INT0_ISR
   _INT1_ISR
   _INT2_ISR
   _MSSP_Spi_ISR
   _RB4_ISR
   _RB5_ISR
   _RB6_ISR
   _RB7_ISR
   _TMR0_ISR
   _TMR1_ISR
   _TMR2_ISR
   _TMR3_ISR

 Address spaces:
Name               Size   Autos  Total    Cost      Usage
BIGRAM             F7F      0       0      48        0.0%
EEDATA             400      0       0       0        0.0%
BITBANK14          100      0       0      32        0.0%
BANK14             100      0       0      33        0.0%
BITBANK13          100      0       0      30        0.0%
BANK13             100      0       0      31        0.0%
BITBANK12          100      0       0      28        0.0%
BANK12             100      0       0      29        0.0%
BITBANK11          100      0       0      26        0.0%
BANK11             100      0       0      27        0.0%
BITBANK10          100      0       0      24        0.0%
BANK10             100      0       0      25        0.0%
BITBANK9           100      0       0      22        0.0%
BANK9              100      0       0      23        0.0%
BITBANK8           100      0       0      20        0.0%
BANK8              100      0       0      21        0.0%
BITBANK7           100      0       0      18        0.0%
BANK7              100      0       0      19        0.0%
BITBANK6           100      0       0      16        0.0%
BANK6              100      0       0      17        0.0%
BITBANK5           100      0       0      14        0.0%
BANK5              100      0       0      15        0.0%
BITBANK4           100      0       0      12        0.0%
BANK4              100      0       0      13        0.0%
BITBANK3           100      0       0      10        0.0%
BANK3              100      0       0      11        0.0%
BITBANK2           100      0       0       8        0.0%
BANK2              100      0       0       9        0.0%
BITBANK1           100      0       0       6        0.0%
BANK1              100      0       0       7        0.0%
BITBANK15           80      0       0      34        0.0%
BANK15              80      0       0      35        0.0%
BITBANK0            80      0       0       4        0.0%
BANK0               80      0      1B       5       21.1%
BITCOMRAM           7E      0       0       0        0.0%
COMRAM              7E      E      79       1       96.0%
BITBIGSFRhlhlhh     18      0       0      37        0.0%
BITBIGSFRhh          D      0       0      36        0.0%
BITBIGSFRlllhh       6      0       0      44        0.0%
BITBIGSFRhlhlhh      5      0       0      38        0.0%
BITBIGSFRllhllh      4      0       0      41        0.0%
BITBIGSFRllllh       4      0       0      45        0.0%
BITBIGSFRllhllh      4      0       0      42        0.0%
BITBIGSFRlllll       4      0       0      46        0.0%
BITBIGSFRhlhlhh      1      0       0      39        0.0%
BITBIGSFRllhllh      1      0       0      40        0.0%
BITBIGSFRllhlll      1      0       0      43        0.0%
BIGSFR               0      0       0     200        0.0%
BITSFR               0      0       0     200        0.0%
SFR                  0      0       0     200        0.0%
STACK                0      0       0       2        0.0%
NULL                 0      0       0       0        0.0%
ABS                  0      0      94      47        0.0%
DATA                 0      0      94       3        0.0%
CODE                 0      0       0       0        0.0%


Microchip Technology PIC18 Macro Assembler V2.45 build 20230818022343 
Symbol Table                                                                                   Thu May 02 18:06:31 2024

                         ??_InterruptManager 006D                        _I2C_BUS_COLLISION_ISR 1DCA  
                                _SSPSTATbits 0FC7                                          l500 1A8E  
                                        l600 1AF4                                          l563 157A  
                                        l820 17FA                                          l592 1C0A  
                                        l586 16D4                                          l860 1BB4  
                                        l839 190A                    _RB5_InterruptHandeler_Low 001F  
    _I2C_Receive_Overflow_IndicatoR_HANDLERF 0013                              __end_of_ADC_ISR 1DDE  
                                        _ret 003D                              ?_configure_mode 006F  
                                        wreg 0FE8                                   _TXSTA1bits 0FAC  
                            ??_OSC_configure 006E                                  led_on@F3059 0044  
                            __end_of_RB4_ISR 1D70                              __end_of_RB5_ISR 1D56  
                            __end_of_RB6_ISR 1D3C                              __end_of_RB7_ISR 1D22  
                    __end_of_interrupt_init1 1CE8                                         l1500 1A1E  
                                       l1514 1CC2                                         l1507 1C88  
                                       l1632 1CE6                                         l1642 1D78  
                                       l1627 1C4E                                         l1467 1920  
                                       l1643 1D78                                         l1469 19A8  
                                       l1494 1A00                                         l5201 1888  
                                       l5301 1598                                         l5221 1712  
                                       l5205 18DE                                         l5311 15DA  
                                       l5223 1768                                         l5215 16D6  
                                       l5207 1908                                         l5241 1AB2  
                                       l5313 15E6                                         l5305 15B6  
                                       l5217 16EA                                         l5401 1CA8  
                                       l5243 1ACC                                         l5323 165E  
                                       l5331 168E                                         l5307 15C2  
                                       l5315 15F2                                         l5227 17B8  
                                       l5219 170A                                         l5251 1B68  
                                       l5403 1CC0                                         l5245 1AD4  
                                       l5237 1A90                                         l5325 166A  
                                       l5309 15CE                                         l5261 1418  
                                       l5229 17F8                                         l5253 1B88  
                                       l5501 1A56                                         l5247 1AF0  
                                       l5239 1AAA                                         l5327 1676  
                                       l5319 1640                                         l5271 1468  
                                       l5263 1432                                         l5255 1B90  
                                       l5503 1A70                                         l5361 1BDA  
                                       l5353 1BB6                                         l5329 1682  
                                       l5273 1474                                         l5281 14E6  
                                       l5193 17FC                                         l5257 1BB2  
                                       l5249 1B58                                         l5505 1A74  
                                       l5521 1954                                         l5513 190C  
                                       l5371 1C08                                         l5355 1BC6  
                                       l5363 1BE0                                         l5291 1528  
                                       l5275 1480                                         l5267 1450  
                                       l5195 1810                                         l5507 1A7E  
                                       l5611 1C2E                                         l5603 1C0C  
                                       l5531 1994                                         l5523 1970  
                                       l5515 191C                                         l5365 1BF0  
                                       l5357 1BCA                                         l5285 1504  
                                       l5293 1534                                         l5269 145C  
                                       l5277 148C                                         l5197 1830  
                                       l5509 1A86                                         l5621 1C46  
                                       l5613 1C30                                         l5605 1C1E  
                                       l5381 19E2                                         l5373 19AA  
                                       l5533 19A2                                         l5525 197E  
                                       l5517 1922                                         l5367 1BF4  
                                       l5359 1BD8                                         l5287 1510  
                                       l5279 14DA                                         l5199 1838  
                                       l5615 1C32                                         l5607 1C22  
                                       l5383 19FA                                         l5375 19C2  
                                       l5391 1C68                                         l5535 19A4  
                                       l5527 1990                                         l5519 193A  
                                       l5631 1CD4                                         l5623 1CC4  
                                       l6351 1D74                                         l5369 1C06  
                                       l5289 151C                                         l6521 18F2  
                                       l5617 1C3A                                         l5609 1C2A  
                                       l5377 19C4                                         l5385 1A04  
                                       l5393 1C6E                                         l5537 19A6  
                                       l5529 1992                                         l5633 1CDC  
                                       l5625 1CC8                                         l6531 16AE  
                                       l5299 157E                                         l6523 17E2  
                                       l5619 1C42                                         l5387 1A1C  
                                       l5379 19DC                                         l5395 1C86  
                                       l5635 1CDE                                         l5627 1CD0  
                                       l6525 14AC                                         l5493 1A20  
                                       l5397 1C8A                                         l5389 1C50  
                                       l5629 1CD2                                         l6349 1D70  
                                       l6527 1554                                         l5495 1A30  
                                       l5399 1CA2                                         l6529 1612  
                                       l5497 1A34                                         l5499 1A4E  
                                       STR_1 100D                   _RB5_InterruptHandeler_High 0021  
                                       _LATA 0F89                                         _LATB 0F8A  
                                       _LATC 0F8B                                         u4000 1A30  
                                       _LATD 0F8C                                         u4001 1A2C  
                                       _LATE 0F8D                                         u4010 1A4E  
                                       u4011 1A4A                                         u4020 1A70  
                                       u4021 1A6C                                         u4030 191C  
                                       u4031 1918                                         u3700 17CE  
                                       u3620 1810                                         u3701 17C8  
                                       u3621 180C                                         u3710 17D0  
                                       u3630 1830                                         u3631 182C  
                                       u3720 1AAA                                         u3800 1598  
                                       u3721 1AA6                                         u3801 1594  
                                       u3730 1ACC                                         u3810 15B2  
                                       u3731 1AC8                                         u3811 15AE  
                                       u3740 1AF0                                         u3820 165A  
                                       u3660 16EA                                         u3644 1856  
                                       u3900 1C86                                         u3741 1AEC  
                                       u3821 1656                                         u3661 16E6  
                                       u3645 1852                                         u3901 1C82  
                                       u3830 1BC6                                         u3670 170A  
                                       u3654 18A6                                         u3750 1B68  
                                       u3910 1CA2                                         u3831 1BC2  
                                       u3671 1706                                         u3655 18A2  
                                       u3751 1B64                                         u3911 1C9E  
                                       u3840 1BF0                                         u3760 1B88  
                                       u3920 1CC0                                         u3841 1BEC  
                                       u3761 1B84                                         u3921 1CBC  
                                       u3770 1432                                         u3850 19C2  
                                       u3771 142E                                         u3851 19BE  
                                       u3780 144C                                         u3684 1730  
                                       u3860 19DC                                         u3781 1448  
                                       u3685 172C                                         u3861 19D8  
                                       u3790 1500                                         u3694 1786  
                                       u3870 19FA                                         u3791 14FC  
                                       u3695 1782                                         u3871 19F6  
                                       u3880 1A1C                                         u3881 1A18  
                                       u3890 1C68                                         u3891 1C64  
                                       _TMR2 0FCC                                         _int1 0046  
                                       _main 1D70                             __end_of_CCP1_ISR 1DDA  
                           __end_of_CCP2_ISR 1DD6                                         fsr2h 0FDA  
                                       indf2 0FDF                                         fsr1l 0FE1  
                                       fsr2l 0FD9                                         btemp 007A  
                                       prodl 0FF3                                         start 000E  
                      __end_of_ccp_interrupt 1C0C                             __end_of_CCP_INIt 1A90  
                               ___param_bank 0000                         _gpio_pin_write_logic 17FC  
                           __end_of_INT0_ISR 1DC6                             __end_of_INT1_ISR 1DC2  
                           __end_of_INT2_ISR 1DBE                                        ?_main 006C  
                                      _EEADR 0FA9                                 led_off@F3064 0043  
                                      i2l540 1DD4                                        i2l535 1DD8  
                                      i2l456 1DDC                                        i2l763 1DD0  
                                      i2l772 1DDE                                        _RCREG 0FAE  
                                      _TMR0H 0FD7                                        _TMR1H 0FCF  
                                      _TMR0L 0FD6                                        _TMR1L 0FCE  
                                      _TMR3H 0FB3                                        _TMR3L 0FB2  
                                      _SPBRG 0FAF                                        _PORTA 0F80  
                                      _PORTB 0F81                                        _PORTC 0F82  
                                      _PORTD 0F83                                        _PORTE 0F84  
                                      _TRISA 0F92                                        _TRISB 0F93  
                                      _TRISC 0F94                                        _TRISD 0F95  
                                      _TRISE 0F96                                        _TXREG 0FAD  
                           __end_of_TMR0_ISR 1DA4                             __end_of_TMR1_ISR 1D98  
                           __end_of_TMR2_ISR 1DB6                             __end_of_TMR3_ISR 1D8C  
                                      tablat 0FF5                                        ttemp5 007B  
                                      ttemp6 007E                                        ttemp7 0082  
                                      status 0FD8                                        wtemp8 007B  
                         selected_timer@_ccp 006D                       ?_I2C_BUS_COLLISION_ISR 006C  
                            __initialization 1AF6                                 __end_of_main 1D80  
                      ?_gpio_pin_write_logic 006D                                    ??_ADC_ISR 006C  
                              _lat_registers 004D                      _CCP1_INTERRUPT_HANDLERF 0039  
                                     ??_main 007A                                __activetblptr 0003  
                                  ??_RB4_ISR 006C                                    ??_RB5_ISR 006C  
                                  ??_RB6_ISR 006C                                    ??_RB7_ISR 006C  
                    capture_read_value@F3164 0035                                       _ADRESH 0FC4  
                                     _EEADRH 0FAA                                       _ADRESL 0FC3  
                                     _EEDATA 0FA8                                       _CCPR1H 0FBF  
                                     _CCPR2H 0FBC                                       _CCPR1L 0FBE  
                                     _CCPR2L 0FBB                                       _EECON2 0FA7  
                           ?_interrupt_init1 006C                                       i2l1200 120C  
                                     i2l1210 12F4                                       i2l1202 1250  
                                     i2l1107 1D3A                                       i2l1220 1394  
                                     i2l1212 1314                                       i2l1204 1294  
                                     i2l1118 1D20                                       i2l1222 13B4  
                                     i2l1214 1334                                       i2l1206 12B4  
                                     i2l1064 1DC4                                       i2l1224 13D4  
                                     i2l1216 1354                                       i2l1208 12D4  
                                     i2l3001 1D5A                                       i2l1074 1DBC  
                                     i2l1226 13F4                                       i2l1218 1374  
                                     i2l1069 1DC0                                       i2l1085 1D6E  
                                     i2l3021 1D54                                       i2l3013 1D3E  
                                     i2l1229 1414                                       i2l1190 10B8  
                                     i2l3103 1DB6                                       i2l3007 1D6E  
                                     i2l3015 1D40                                       i2l1096 1D54  
                                     i2l1192 10FC                                       i2l1184 1034  
                                     i2l3041 1D0A                                       i2l1442 1DA2  
                                     i2l1194 1140                                       i2l1186 1054  
                                     i2l3035 1D3A                                       i2l3027 1D24  
                                     i2l3043 1D0C                                       i2l1372 1DC8  
                                     i2l1196 1184                                       i2l1188 1074  
                                     i2l3029 1D26                                       i2l1198 11C8  
                                     i2l1367 1DCC                                       i2l3055 1D98  
                                     i2l3049 1D20                                       i2l3057 1D9A  
                                     i2l3065 1D8C                                       i2l1553 1DB4  
                                     i2l3081 1D80                                       i2l3091 1DC6  
                                     i2l3059 1D9E                                       i2l3067 1D8E  
                                     i2l3075 1DAE                                       i2l3083 1D82  
                                     i2l3069 1D92                                       i2l3085 1D86  
                                     i2l1744 1DB8                                       i2l3097 1DCA  
                                     i2l1489 1D96                                       i2l2901 1DD6  
                                     i2l1598 1D8A                                       i2l4601 121A  
                                     i2l2907 1DD2                                       i2l2923 1DCE  
                                     i2l4611 125E                                       i2l4603 1228  
                                     i2l4531 1030                                       i2l4621 12A2  
                                     i2l4613 126C                                       i2l4605 1236  
                                     i2l4541 1082                                       i2l4533 1042  
                                     i2l4631 12F0                                       i2l4623 12B0  
                                     i2l4615 127A                                       i2l4607 1246  
                                     i2l4551 10C6                                       i2l4543 1090  
                                     i2l4535 1050                                       i2l4527 1014  
                                     i2l2929 1DDE                                       i2l4641 1342  
                                     i2l4633 1302                                       i2l4625 12C2  
                                     i2l4617 128A                                       i2l4609 124A  
                                     i2l4561 110A                                       i2l4553 10D4  
                                     i2l4545 109E                                       i2l4537 1062  
                                     i2l4529 1022                                       i2l4651 1390  
                                     i2l4643 1350                                       i2l4635 1310  
                                     i2l4627 12D0                                       i2l4619 128E  
                                     i2l4571 114E                                       i2l4563 1118  
                                     i2l4555 10E2                                       i2l4547 10AE  
                                     i2l4539 1070                                       i2l4661 13E2  
                                     i2l4653 13A2                                       i2l4645 1362  
                                     i2l4637 1322                                       i2l4629 12E2  
                                     i2l4581 1192                                       i2l4573 115C  
                                     i2l4565 1126                                       i2l4557 10F2  
                                     i2l4549 10B2                                       i2l2895 1DDA  
                                     i2l2983 1DC2                                       i2l4663 13F0  
                                     i2l4655 13B0                                       i2l4647 1370  
                                     i2l4639 1330                                       i2l4591 11D6  
                                     i2l4583 11A0                                       i2l4575 116A  
                                     i2l4567 1136                                       i2l4559 10F6  
                                     i2l2993 1DBA                                       i2l4665 1402  
                                     i2l4657 13C2                                       i2l4649 1382  
                                     i2l4593 11E4                                       i2l4585 11AE  
                                     i2l4577 117A                                       i2l4569 113A  
                                     i2l2987 1DBE                                       i2l4667 1410  
                                     i2l4659 13D0                                       i2l4595 11F2  
                                     i2l4587 11BE                                       i2l4579 117E  
                                     i2l4597 1202                                       i2l4589 11C2  
                                     i2l2999 1D58                                       i2l4599 1206  
                                     _SPBRGH 0FB0       register_configure@hal_timer1$F3591@TMR 006D  
                                     _SSPADD 0FC8                                       _SSPBUF 0FC9  
                           __end_of_ccp_init 1C50                            __end_of_TMR1_Init 19AA  
                                     clear_0 1B3C                                       clear_1 1B48  
                                     isa$std 0001                                    ?_CCP1_ISR 006C  
                               __pdataCOMRAM 004D                                    ?_CCP2_ISR 006C  
                               __mediumconst 0000                                       tblptrh 0FF7  
                                     tblptrl 0FF6                                       tblptru 0FF8  
                  _TIMER3_INTERRUPT_HANDLERF 0005                                    ?_CCP_INIt 0078  
                                 __accesstop 0080                      __end_of__initialization 1B4E  
                                  ?_INT0_ISR 006C                                    ?_INT1_ISR 006C  
                                  ?_INT2_ISR 006C                                ___rparam_used 0001  
                             _selected_timer 1A90                       ??_gpio_pin_write_logic 006F  
                             __pcstackCOMRAM 006C                                 __pidataBANK0 1DA4  
                                  ?_TMR0_ISR 006C                                    ?_TMR1_ISR 006C  
                                  ?_TMR2_ISR 006C                                    ?_TMR3_ISR 006C  
                           ??_configure_mode 0070                            RB5_ISR@RB5_source 006C  
                                 ??_CCP1_ISR 006C                                   ??_CCP2_ISR 006C  
                                 ??_CCP_INIt 0079                       _INT2_InterruptHandeler 0027  
             _preload_value@hal_timer1$F3666 000B                                   __pbssBANK0 0080  
                                 ??_INT0_ISR 006C                                   ??_INT1_ISR 006C  
                                 ??_INT2_ISR 006C                       __end_of_selected_timer 1AF6  
                                 ??_TMR0_ISR 006C                                   ??_TMR1_ISR 006C  
                                 ??_TMR2_ISR 006C                                   ??_TMR3_ISR 006C  
                                    _ADC_ISR 1DDA                              led_toggle@F3069 0042  
                          _EUSART_RX_ASY_ISR 1DDE                            led_intalize@F3054 0045  
                         ?_EUSART_RX_ASY_ISR 006C                    _RB6_InterruptHandeler_Low 001B  
                                    _RB4_ISR 1D56                                      _RB5_ISR 1D3C  
                                    _RB6_ISR 1D22                                      _RB7_ISR 1D08  
                                  ?_ccp_init 006C                            _EUSART_TX_ASY_ISR 1DCE  
                              _keypad_values 1001                                      i2u62_40 1D6A  
                                    i2u62_41 1D66                                      i2u63_40 1D50  
                                    i2u63_41 1D4C                                      i2u64_40 1D36  
                                    i2u64_41 1D32                                      i2u65_40 1D1C  
                                    i2u65_41 1D18                            RB7_ISR@RB7_source 006C  
                        ??_EUSART_RX_ASY_ISR 006C                        __end_of_OSC_configure 1CC4  
                         ?_EUSART_TX_ASY_ISR 006C                   _RB4_InterruptHandeler_High 0025  
                          ccp_interrupt@_ccp 006D                               _tris_registers 0057  
                 _RB7_InterruptHandeler_High 0019                      ??_I2C_BUS_COLLISION_ISR 006C  
                        ??_EUSART_TX_ASY_ISR 006C                              ?_selected_timer 006D  
                                    __Hparam 0000                                      __Lparam 0000  
                  __end_of_EUSART_RX_ASY_ISR 1DE0                                 __psmallconst 1000  
                                    _ccp_obj 0086                   __end_of_gpio_pin_intialize 1BB6  
                                    __pcinit 1AF6                                ?_MSSP_Spi_ISR 006C  
                                    __ramtop 1000  __end_of_register_configure@hal_timer1$F3591 1C8A  
        _register_configure@hal_timer1$F3591 1C50         ?_register_configure@hal_timer1$F3593 006D  
      ??_register_configure@hal_timer1$F3595 006E                                      __ptext0 1D70  
                              relay_on@F3057 0040                                      __ptext1 1CC4  
                                    __ptext2 190C                                      __ptext3 1C50  
                                    __ptext4 1C8A                                      __ptext5 19AA  
                                    __ptext6 1C0C                                      __ptext7 1A20  
                                    __ptext8 1B58                                      __ptext9 17FC  
                                  _T0CONbits 0FD5                    __end_of_EUSART_TX_ASY_ISR 1DD2  
                                  _T1CONbits 0FCD                                    _T2CONbits 0FCA  
                                  _T3CONbits 0FB1                                   ??_ccp_init 007A  
                     _TMR2_INTERRUPT_HANDLER 0007                            _I2C_MODULE_TR_ISR 1DC6  
                             __pintcode_body 1012                         end_of_initialization 1B4E  
                         ?_I2C_MODULE_TR_ISR 006C                                      int_func 1012  
                        ??_I2C_MODULE_TR_ISR 006C                        gpio_pin_intialize@ret 0077  
                                  _RCSTAbits 0FAB                                      postdec1 0FE5  
                                    postdec2 0FDD                                      postinc0 0FEE  
                                    postinc2 0FDE                               ??_MSSP_Spi_ISR 006C  
         MODE_configure@hal_timer1$F3585@TMR 006D      _EUSART_FRAMING_ERROR_INTERRUPT_HANDLERF 002F  
                                  _TMR1_Init 190C                 _I2C_Write_Collision_HANDLERF 0015  
                                  _PORTBbits 0F81                       _ADC_INTERRUPT_HANDLERF 003B  
                           _InterruptManager 0008                    __end_of_I2C_MODULE_TR_ISR 1DCA  
       __end_of_gpio_pin_direction_intialize 17FC                 _gpio_pin_direction_intialize 16D6  
                                  _TRISCbits 0F94                 _EUSART_TX_INTERRUPT_HANDLERF 0033  
    __end_of_MODE_configure@hal_timer1$F3585 1A20              _MODE_configure@hal_timer1$F3585 19AA  
           ?_MODE_configure@hal_timer1$F3587 006D            ??_MODE_configure@hal_timer1$F3589 006E  
                                _CCP1CONbits 0FBD                           configure_mode@_ccp 006F  
                                _CCP2CONbits 0FBA                                    _TXSTAbits 0FAC  
                              _ccp_interrupt 1BB6                convert_uint16_to_string@F3208 0080  
                                _BAUDCONbits 0FB8                                __pidataCOMRAM 1CE8  
                                 ?_TMR1_Init 006E                          start_initialization 1AF6  
              ?_gpio_pin_direction_intialize 006D                               ?_ccp_interrupt 006D  
                                __pdataBANK0 0091                                     ?_ADC_ISR 006C  
                               CCP_INIt@_ccp 0078            spi_slave_mode_configuration@F3141 0063  
          spi_slave_mode_configuration@F3143 0062            spi_slave_mode_configuration@F3145 0061  
          spi_slave_mode_configuration@F3139 0064                                     ?_RB4_ISR 006C  
                                   ?_RB5_ISR 006C                                     ?_RB6_ISR 006C  
                                   ?_RB7_ISR 006C                                  __pbssCOMRAM 0001  
                           OSC_configure@TMR 006D                       _INT0_InterruptHandeler 002B  
                           ??_selected_timer 006E                         __end_of_MSSP_Spi_ISR 1DBA  
                          _TIMER0_INTERRUPPT 000D              gpio_pin_direction_intialize@ret 0073  
              __end_of_I2C_BUS_COLLISION_ISR 1DCE                                    __pintcode 0008  
                          ??_interrupt_init1 0071                    gpio_pin_write_logic@logic 006E  
                                ??_TMR1_Init 006F                    _RB4_InterruptHandeler_Low 0023  
                                __smallconst 1000                     gpio_pin_intialize@_pin_t 0075  
                                   _CCP1_ISR 1DD6                                     _CCP2_ISR 1DD2  
                  _RB7_InterruptHandeler_Low 0017                                     _CCP_INIt 1A20  
                         _gpio_pin_intialize 1B58                   _RB6_InterruptHandeler_High 001D  
             ??_gpio_pin_direction_intialize 006E                                     _INT0_ISR 1DC2  
                                   _INT1_ISR 1DBE                                     _INT2_ISR 1DBA  
                                   _RB4_Flag 006B                                     _RB5_Flag 006A  
                                   _RB6_Flag 0069                              ??_ccp_interrupt 006E  
                                   _RB7_Flag 0068      _EUSART_OVERRUN_ERROR_INTERRUPT_HANDLERF 002D  
                        ?_gpio_pin_intialize 0075                     __end_of_InterruptManager 1418  
                                   _PIE1bits 0F9D                                     _PIE2bits 0FA0  
        gpio_pin_direction_intialize@__pin_t 006D                                     i2u220_40 1042  
                                   i2u220_41 103E                                     i2u221_40 1050  
                                   i2u221_41 104C                                     i2u230_40 10E2  
                                   i2u222_40 1062                                     i2u230_41 10DE  
                                   i2u222_41 105E                                     i2u231_40 10F2  
                                   i2u223_40 1070                                     i2u231_41 10EE  
                                   i2u223_41 106C                                     i2u240_40 1192  
                                   i2u232_40 110A                                     i2u224_40 1082  
                                   i2u240_41 118E                                     i2u232_41 1106  
                                   i2u224_41 107E                                     i2u241_40 11A0  
                                   i2u233_40 1118                                     i2u225_40 1090  
                                   i2u241_41 119C                                     i2u233_41 1114  
                                   i2u225_41 108C                                     i2u250_40 1236  
                                   i2u242_40 11AE                                     i2u234_40 1126  
                                   i2u226_40 109E                                     i2u218_40 1022  
                                   i2u250_41 1232                                     i2u242_41 11AA  
                                   i2u234_41 1122                                     i2u226_41 109A  
                                   i2u218_41 101E                                     i2u251_40 1246  
                                   i2u243_40 11BE                                     i2u235_40 1136  
                                   i2u227_40 10AE                                     i2u219_40 1030  
                                   i2u251_41 1242                                     i2u243_41 11BA  
                                   i2u235_41 1132                                     i2u227_41 10AA  
                                   i2u219_41 102C                                     i2u260_40 12E2  
                                   i2u252_40 125E                                     i2u244_40 11D6  
                                   i2u236_40 114E                                     i2u228_40 10C6  
                                   i2u260_41 12DE                                     i2u252_41 125A  
                                   i2u244_41 11D2                                     i2u236_41 114A  
                                   i2u228_41 10C2                                     i2u261_40 12F0  
                                   i2u253_40 126C                                     i2u245_40 11E4  
                                   i2u237_40 115C                                     i2u229_40 10D4  
                                   i2u261_41 12EC                                     i2u253_41 1268  
                                   i2u245_41 11E0                                     i2u237_41 1158  
                                   i2u229_41 10D0                                     i2u270_40 1382  
                                   i2u262_40 1302                                     i2u254_40 127A  
                                   i2u246_40 11F2                                     i2u238_40 116A  
                                   i2u270_41 137E                                     i2u262_41 12FE  
                                   i2u254_41 1276                                     i2u246_41 11EE  
                                   i2u238_41 1166                                     i2u271_40 1390  
                                   i2u263_40 1310                                     i2u255_40 128A  
                                   i2u247_40 1202                                     i2u239_40 117A  
                                   i2u271_41 138C                                     i2u263_41 130C  
                                   i2u255_41 1286                                     i2u247_41 11FE  
                                   i2u239_41 1176                                     i2u272_40 13A2  
                                   i2u264_40 1322                                     i2u256_40 12A2  
                                   i2u248_40 121A                                     i2u272_41 139E  
                                   i2u264_41 131E                                     i2u256_41 129E  
                                   i2u248_41 1216                                     i2u273_40 13B0  
                                   i2u265_40 1330                                     i2u257_40 12B0  
                                   i2u249_40 1228                                     i2u273_41 13AC  
                                   i2u265_41 132C                                     i2u257_41 12AC  
                                   i2u249_41 1224                                     _PIR1bits 0F9E  
                                   i2u274_40 13C2                                     i2u266_40 1342  
                                   i2u258_40 12C2                                     i2u274_41 13BE  
                                   i2u266_41 133E                                     i2u258_41 12BE  
                                   i2u275_40 13D0                                     i2u267_40 1350  
                                   i2u259_40 12D0                                     i2u275_41 13CC  
                                   i2u267_41 134C                                     i2u259_41 12CC  
                                   _PIR2bits 0FA1                                     i2u276_40 13E2  
                                   i2u268_40 1362                                     i2u276_41 13DE  
                                   i2u268_41 135E                                     i2u277_40 13F0  
                                   i2u269_40 1370                                     i2u277_41 13EC  
                                   i2u269_41 136C                                     i2u278_40 1402  
                                   i2u278_41 13FE                                     i2u279_40 1410  
                                   i2u279_41 140C                   _TIMER1_INTERRUPPT_HANDLERF 0009  
                          RB4_ISR@RB4_source 006C                                     _TMR0_ISR 1D98  
                                   _TMR1_ISR 1D8C                                     _TMR2_ISR 1DAE  
                                   _TMR3_ISR 1D80                                   _ADCON0bits 0FC2  
                                 _ADCON1bits 0FC1                                   _ADCON2bits 0FC0  
                       ??_gpio_pin_intialize 0076                      gpio_pin_write_logic@ret 0074  
                                _INTCON2bits 0FF1                                  _INTCON3bits 0FF0  
                                  copy_data0 1B0A                                    copy_data1 1B2A  
                                 _EECON1bits 0FA6                                     __Hrparam 0000  
                                   __Lrparam 0000                  _MSSP_SPI_INTERRUPT_HANDLERF 0001  
                    _CCP2_INTERRUPT_HANDLERF 0037                       _I2C_INTERRUPT_HANDLERF 0011  
                              _preload_value 000F                            RB6_ISR@RB6_source 006C  
                                   _ccp_init 1C0C                                     __ptext10 16D6  
                                   __ptext11 1418                                     __ptext20 1D22  
                                   __ptext12 1A90                                     __ptext21 1D3C  
                                   __ptext13 1BB6                                     __ptext30 1DDE  
                                   __ptext22 1D56                                     __ptext31 1DD2  
                                   __ptext23 1DB6                                     __ptext15 1D80  
                                   __ptext32 1DD6                                     __ptext24 1DBA  
                                   __ptext16 1DAE                                     __ptext33 1DDA  
                                   __ptext25 1DBE                                     __ptext17 1D8C  
                                   __ptext26 1DC2                                     __ptext18 1D98  
                                   __ptext27 1DC6                                     __ptext19 1D08  
                                   __ptext28 1DCA                                     __ptext29 1DCE  
                              _OSC_configure 1C8A                 _EUSART_RX_INTERRUPT_HANDLERF 0031  
                             relay_off@F3062 003F           spi_master_mode_configuration@F3131 0067  
         spi_master_mode_configuration@F3133 0066           spi_master_mode_configuration@F3135 0065  
                                   isa$xinst 0000                                     int$flags 007A  
                               TMR1_Init@TMR 006E                                 _MSSP_Spi_ISR 1DB6  
                      __end_of_keypad_values 100D                                   _INTCONbits 0FF2  
                             _configure_mode 1418                 __end_of_gpio_pin_write_logic 190C  
                             ?_OSC_configure 006D                                 _preload_vall 0003  
                                   intlevel2 0000                              _interrupt_init1 1CC4  
                 gpio_pin_write_logic@_pin_t 006D                         relay_initalize@F3052 0041  
                                _preload_val 003E                               _port_registers 0091  
                     __end_of_configure_mode 16D6                                  _SSPCON1bits 0FC6  
                                _SSPCON2bits 0FC5                       _INT1_InterruptHandeler 0029  
                          ?_InterruptManager 006C  
